
main.elf:     file format elf32-littlearm

Sections:
Idx Name          Size      VMA       LMA       File off  Algn
  0 .text         00008e34  00000000  00000000  00008000  2**2
                  CONTENTS, ALLOC, LOAD, READONLY, CODE
  1 .rodata       00000198  00008e34  00008e34  00010e34  2**2
                  CONTENTS, ALLOC, LOAD, READONLY, DATA
  2 .rodata.str1.4 00000088  00008fcc  00008fcc  00010fcc  2**2
                  CONTENTS, ALLOC, LOAD, READONLY, DATA
  3 .data         00000824  00200000  00009054  00018000  2**2
                  CONTENTS, ALLOC, LOAD, DATA
  4 .bss          000000f4  00200824  00009878  00018824  2**2
                  ALLOC
  5 .comment      000002d0  00000000  00000000  00018824  2**0
                  CONTENTS, READONLY
  6 .debug_aranges 000005c0  00000000  00000000  00018af8  2**3
                  CONTENTS, READONLY, DEBUGGING
  7 .debug_pubnames 00000aac  00000000  00000000  000190b8  2**0
                  CONTENTS, READONLY, DEBUGGING
  8 .debug_info   00015e5e  00000000  00000000  00019b64  2**0
                  CONTENTS, READONLY, DEBUGGING
  9 .debug_abbrev 00004015  00000000  00000000  0002f9c2  2**0
                  CONTENTS, READONLY, DEBUGGING
 10 .debug_line   0000462d  00000000  00000000  000339d7  2**0
                  CONTENTS, READONLY, DEBUGGING
 11 .debug_frame  00000f5c  00000000  00000000  00038004  2**2
                  CONTENTS, READONLY, DEBUGGING
 12 .debug_str    00001de3  00000000  00000000  00038f60  2**0
                  CONTENTS, READONLY, DEBUGGING
 13 .debug_loc    0000847c  00000000  00000000  0003ad43  2**0
                  CONTENTS, READONLY, DEBUGGING
 14 .ARM.attributes 00000010  00000000  00000000  000431bf  2**0
                  CONTENTS, READONLY
 15 .debug_ranges 000005f8  00000000  00000000  000431cf  2**0
                  CONTENTS, READONLY, DEBUGGING
Disassembly of section .text:

00000000 <_startup>:
       0:	ea000010 	b	48 <InitReset>

00000004 <undefvec>:
       4:	eafffffe 	b	4 <undefvec>

00000008 <swivec>:
       8:	eafffffe 	b	8 <swivec>

0000000c <pabtvec>:
       c:	eafffffe 	b	c <pabtvec>

00000010 <dabtvec>:
      10:	eafffffe 	b	10 <dabtvec>

00000014 <rsvdvec>:
      14:	eafffffe 	b	14 <rsvdvec>

00000018 <irqvec>:
      18:	ea000027 	b	bc <IRQ_Handler_Entry>

0000001c <FIQ_Handler_Entry>:
      1c:	e1a09000 	mov	r9, r0
      20:	e5980104 	ldr	r0, [r8, #260]
      24:	e321f0d3 	msr	CPSR_c, #211	; 0xd3
      28:	e92d500e 	push	{r1, r2, r3, ip, lr}
      2c:	e1a0e00f 	mov	lr, pc
      30:	e12fff10 	bx	r0
      34:	e8bd500e 	pop	{r1, r2, r3, ip, lr}
      38:	e321f0d1 	msr	CPSR_c, #209	; 0xd1
      3c:	e1a00009 	mov	r0, r9
      40:	e25ef004 	subs	pc, lr, #4	; 0x4

00000044 <.RAM_TOP>:
      44:	00204000 	.word	0x00204000

00000048 <InitReset>:
      48:	e51fd00c 	ldr	sp, [pc, #-12]	; 44 <.RAM_TOP>
      4c:	e59f00c4 	ldr	r0, [pc, #196]	; 118 <AT91F_Spurious_handler+0x4>
      50:	e1a0e00f 	mov	lr, pc
      54:	e12fff10 	bx	r0
      58:	e1a0000d 	mov	r0, sp
      5c:	e321f0d1 	msr	CPSR_c, #209	; 0xd1
      60:	e59f80b4 	ldr	r8, [pc, #180]	; 11c <AT91F_Spurious_handler+0x8>
      64:	e321f0d2 	msr	CPSR_c, #210	; 0xd2
      68:	e1a0d000 	mov	sp, r0
      6c:	e2400060 	sub	r0, r0, #96	; 0x60
      70:	e321f013 	msr	CPSR_c, #19	; 0x13
      74:	e1a0d000 	mov	sp, r0
      78:	e59f10a0 	ldr	r1, [pc, #160]	; 120 <AT91F_Spurious_handler+0xc>
      7c:	e59f20a0 	ldr	r2, [pc, #160]	; 124 <AT91F_Spurious_handler+0x10>
      80:	e59f30a0 	ldr	r3, [pc, #160]	; 128 <AT91F_Spurious_handler+0x14>

00000084 <LoopRel>:
      84:	e1520003 	cmp	r2, r3
      88:	34910004 	ldrcc	r0, [r1], #4
      8c:	34820004 	strcc	r0, [r2], #4
      90:	3afffffb 	bcc	84 <LoopRel>
      94:	e3a00000 	mov	r0, #0	; 0x0
      98:	e59f108c 	ldr	r1, [pc, #140]	; 12c <AT91F_Spurious_handler+0x18>
      9c:	e59f208c 	ldr	r2, [pc, #140]	; 130 <AIC_EOICR>

000000a0 <LoopZI>:
      a0:	e1510002 	cmp	r1, r2
      a4:	34810004 	strcc	r0, [r1], #4
      a8:	3afffffc 	bcc	a0 <LoopZI>
      ac:	e59fe080 	ldr	lr, [pc, #128]	; 134 <AIC_EOICR+0x4>
      b0:	e59f0080 	ldr	r0, [pc, #128]	; 138 <AIC_EOICR+0x8>
      b4:	e12fff10 	bx	r0

000000b8 <exit>:
      b8:	eafffffe 	b	b8 <exit>

000000bc <IRQ_Handler_Entry>:
      bc:	e24ee004 	sub	lr, lr, #4	; 0x4
      c0:	e92d4000 	push	{lr}
      c4:	e14fe000 	mrs	lr, SPSR
      c8:	e92d4000 	push	{lr}
      cc:	e92d0001 	push	{r0}
      d0:	e59fe044 	ldr	lr, [pc, #68]	; 11c <AT91F_Spurious_handler+0x8>
      d4:	e59e0100 	ldr	r0, [lr, #256]
      d8:	e58ee100 	str	lr, [lr, #256]
      dc:	e321f013 	msr	CPSR_c, #19	; 0x13
      e0:	e92d500e 	push	{r1, r2, r3, ip, lr}
      e4:	e1a0e00f 	mov	lr, pc
      e8:	e12fff10 	bx	r0
      ec:	e8bd500e 	pop	{r1, r2, r3, ip, lr}
      f0:	e321f092 	msr	CPSR_c, #146	; 0x92
      f4:	e59fe020 	ldr	lr, [pc, #32]	; 11c <AT91F_Spurious_handler+0x8>
      f8:	e58ee130 	str	lr, [lr, #304]
      fc:	e8bd0001 	pop	{r0}
     100:	e8bd4000 	pop	{lr}
     104:	e16ff00e 	msr	SPSR_fsxc, lr
     108:	e8fd8000 	ldm	sp!, {pc}^

0000010c <AT91F_Default_FIQ_handler>:
     10c:	eafffffe 	b	10c <AT91F_Default_FIQ_handler>

00000110 <AT91F_Default_IRQ_handler>:
     110:	eafffffe 	b	110 <AT91F_Default_IRQ_handler>

00000114 <AT91F_Spurious_handler>:
     114:	eafffffe 	b	114 <AT91F_Spurious_handler>
     118:	0000013c 	.word	0x0000013c
     11c:	fffff000 	.word	0xfffff000
     120:	00009054 	.word	0x00009054
     124:	00200000 	.word	0x00200000
     128:	00200824 	.word	0x00200824
     12c:	00200824 	.word	0x00200824
     130:	00200918 	.word	0x00200918
     134:	000000b8 	.word	0x000000b8
     138:	0000027c 	.word	0x0000027c

0000013c <AT91F_LowLevelInit>:
//* \brief This function performs very low level HW initialization
//*        this function can be use a Stack, depending the compilation
//*        optimization mode
//*----------------------------------------------------------------------------
void AT91F_LowLevelInit( void)
{  int i;
     13c:	e1a0c00d 	mov	ip, sp
     140:	e92dd800 	push	{fp, ip, lr, pc}
     144:	e24cb004 	sub	fp, ip, #4	; 0x4
     148:	e24dd004 	sub	sp, sp, #4	; 0x4
  // Disable Watchdog
  AT91C_BASE_WDTC->WDTC_WDMR= AT91C_WDTC_WDDIS;
     14c:	e3a0332a 	mov	r3, #-1476395008	; 0xa8000000
     150:	e1a03ac3 	asr	r3, r3, #21
     154:	e3a02902 	mov	r2, #32768	; 0x8000
     158:	e5832004 	str	r2, [r3, #4]
  // Set MCK at 24 MHz
  // Enabling the Main Oscillator:
  AT91C_BASE_PMC->PMC_MOR = ( (AT91C_CKGR_OSCOUNT) & (0x10 << 8)) | AT91C_CKGR_MOSCEN ;
     15c:	e3a02102 	mov	r2, #-2147483648	; 0x80000000
     160:	e1a02ac2 	asr	r2, r2, #21
     164:	e3a03a01 	mov	r3, #4096	; 0x1000
     168:	e2833001 	add	r3, r3, #1	; 0x1
     16c:	e5823020 	str	r3, [r2, #32]
  // Wait the startup time
  while(!(AT91C_BASE_PMC->PMC_SR & AT91C_PMC_MOSCS));
     170:	e3a03102 	mov	r3, #-2147483648	; 0x80000000
     174:	e1a03ac3 	asr	r3, r3, #21
     178:	e5933068 	ldr	r3, [r3, #104]
     17c:	e2033001 	and	r3, r3, #1	; 0x1
     180:	e3530000 	cmp	r3, #0	; 0x0
     184:	0afffff9 	beq	170 <AT91F_LowLevelInit+0x34>
  // CPU-Clock: MAIN_CLK / 4 (3 MHz)
  AT91C_BASE_PMC->PMC_MCKR = AT91C_PMC_CSS_MAIN_CLK | AT91C_PMC_PRES_CLK_4;
     188:	e3a03102 	mov	r3, #-2147483648	; 0x80000000
     18c:	e1a03ac3 	asr	r3, r3, #21
     190:	e3a02009 	mov	r2, #9	; 0x9
     194:	e5832030 	str	r2, [r3, #48]
  // wait until MCKRDY in PMC_SR is set
  while(!(AT91C_BASE_PMC->PMC_SR & AT91C_PMC_MCKRDY));
     198:	e3a03102 	mov	r3, #-2147483648	; 0x80000000
     19c:	e1a03ac3 	asr	r3, r3, #21
     1a0:	e5933068 	ldr	r3, [r3, #104]
     1a4:	e2033008 	and	r3, r3, #8	; 0x8
     1a8:	e3530000 	cmp	r3, #0	; 0x0
     1ac:	0afffff9 	beq	198 <AT91F_LowLevelInit+0x5c>
  // setting PLL (96 MHz)
  AT91C_BASE_PMC->PMC_PLLR = ((AT91C_CKGR_DIV      & 8) |
     1b0:	e3a02102 	mov	r2, #-2147483648	; 0x80000000
     1b4:	e1a02ac2 	asr	r2, r2, #21
     1b8:	e3a039fd 	mov	r3, #4145152	; 0x3f4000
     1bc:	e2433ffe 	sub	r3, r3, #1016	; 0x3f8
     1c0:	e582302c 	str	r3, [r2, #44]
                              (AT91C_CKGR_PLLCOUNT & (60 << 8)) |
                              (AT91C_CKGR_MUL      & (63 << 16)));
  // Wait the startup time
  while(!(AT91C_BASE_PMC->PMC_SR & AT91C_PMC_LOCK));
     1c4:	e3a03102 	mov	r3, #-2147483648	; 0x80000000
     1c8:	e1a03ac3 	asr	r3, r3, #21
     1cc:	e5933068 	ldr	r3, [r3, #104]
     1d0:	e2033004 	and	r3, r3, #4	; 0x4
     1d4:	e3530000 	cmp	r3, #0	; 0x0
     1d8:	0afffff9 	beq	1c4 <AT91F_LowLevelInit+0x88>
  // CPU-Clock: PLL / 4 (24 MHz)
  AT91C_BASE_PMC->PMC_MCKR = AT91C_PMC_CSS_PLL_CLK | AT91C_PMC_PRES_CLK_4;
     1dc:	e3a03102 	mov	r3, #-2147483648	; 0x80000000
     1e0:	e1a03ac3 	asr	r3, r3, #21
     1e4:	e3a0200b 	mov	r2, #11	; 0xb
     1e8:	e5832030 	str	r2, [r3, #48]
  // wait until MCKRDY in PMC_SR is set
  while(!(AT91C_BASE_PMC->PMC_SR & AT91C_PMC_MCKRDY));
     1ec:	e3a03102 	mov	r3, #-2147483648	; 0x80000000
     1f0:	e1a03ac3 	asr	r3, r3, #21
     1f4:	e5933068 	ldr	r3, [r3, #104]
     1f8:	e2033008 	and	r3, r3, #8	; 0x8
     1fc:	e3530000 	cmp	r3, #0	; 0x0
     200:	0afffff9 	beq	1ec <AT91F_LowLevelInit+0xb0>
  //  Set Flash Waite state
  //  if MCK = 24MHz I have 36 Cycle for 1.5 usecond ( flied MC_FMR->FMCN)
  AT91C_BASE_MC->MC_FMR = ((AT91C_MC_FMCN)&(36<<16)) | AT91C_MC_FWS_0FWS ;
     204:	e3e020ff 	mvn	r2, #255	; 0xff
     208:	e3a03709 	mov	r3, #2359296	; 0x240000
     20c:	e5823060 	str	r3, [r2, #96]
  // Set up the default interrupts handler vectors
  AT91C_BASE_AIC->AIC_SVR[0] = (int) AT91F_Default_FIQ_handler ;
     210:	e3a03102 	mov	r3, #-2147483648	; 0x80000000
     214:	e1a039c3 	asr	r3, r3, #19
     218:	e59f2050 	ldr	r2, [pc, #80]	; 270 <AT91F_LowLevelInit+0x134>
     21c:	e5832080 	str	r2, [r3, #128]
  for (i=1;i<31; i++)
     220:	e3a03001 	mov	r3, #1	; 0x1
     224:	e50b3010 	str	r3, [fp, #-16]
     228:	ea000008 	b	250 <AT91F_LowLevelInit+0x114>
  {
	  AT91C_BASE_AIC->AIC_SVR[i] = (int) AT91F_Default_IRQ_handler ;
     22c:	e3a02102 	mov	r2, #-2147483648	; 0x80000000
     230:	e1a029c2 	asr	r2, r2, #19
     234:	e51b3010 	ldr	r3, [fp, #-16]
     238:	e59f1034 	ldr	r1, [pc, #52]	; 274 <AT91F_LowLevelInit+0x138>
     23c:	e2833020 	add	r3, r3, #32	; 0x20
     240:	e7821103 	str	r1, [r2, r3, lsl #2]
  //  Set Flash Waite state
  //  if MCK = 24MHz I have 36 Cycle for 1.5 usecond ( flied MC_FMR->FMCN)
  AT91C_BASE_MC->MC_FMR = ((AT91C_MC_FMCN)&(36<<16)) | AT91C_MC_FWS_0FWS ;
  // Set up the default interrupts handler vectors
  AT91C_BASE_AIC->AIC_SVR[0] = (int) AT91F_Default_FIQ_handler ;
  for (i=1;i<31; i++)
     244:	e51b3010 	ldr	r3, [fp, #-16]
     248:	e2833001 	add	r3, r3, #1	; 0x1
     24c:	e50b3010 	str	r3, [fp, #-16]
     250:	e51b3010 	ldr	r3, [fp, #-16]
     254:	e353001e 	cmp	r3, #30	; 0x1e
     258:	dafffff3 	ble	22c <AT91F_LowLevelInit+0xf0>
  {
	  AT91C_BASE_AIC->AIC_SVR[i] = (int) AT91F_Default_IRQ_handler ;
  }
  AT91C_BASE_AIC->AIC_SPU  = (int) AT91F_Spurious_handler ;
     25c:	e3a03102 	mov	r3, #-2147483648	; 0x80000000
     260:	e1a039c3 	asr	r3, r3, #19
     264:	e59f200c 	ldr	r2, [pc, #12]	; 278 <AT91F_LowLevelInit+0x13c>
     268:	e5832134 	str	r2, [r3, #308]
}
     26c:	e89da808 	ldm	sp, {r3, fp, sp, pc}
     270:	0000010c 	.word	0x0000010c
     274:	00000110 	.word	0x00000110
     278:	00000114 	.word	0x00000114

0000027c <main>:
     27c:	e1a0c00d 	mov	ip, sp
     280:	e92dd800 	push	{fp, ip, lr, pc}
     284:	e24cb004 	sub	fp, ip, #4	; 0x4
     288:	e24dd010 	sub	sp, sp, #16	; 0x10
     28c:	e3a03102 	mov	r3, #-2147483648	; 0x80000000
     290:	e1a03ac3 	asr	r3, r3, #21
     294:	e3a02004 	mov	r2, #4	; 0x4
     298:	e5832010 	str	r2, [r3, #16]
     29c:	e3a03000 	mov	r3, #0	; 0x0
     2a0:	e54b3011 	strb	r3, [fp, #-17]
     2a4:	eb00008e 	bl	4e4 <display_init>
     2a8:	e55b3011 	ldrb	r3, [fp, #-17]
     2ac:	e2833001 	add	r3, r3, #1	; 0x1
     2b0:	e54b3011 	strb	r3, [fp, #-17]
     2b4:	eb0002cd 	bl	df0 <getTaste>
     2b8:	e1a03000 	mov	r3, r0
     2bc:	e50b3010 	str	r3, [fp, #-16]
     2c0:	e24b301b 	sub	r3, fp, #27	; 0x1b
     2c4:	e1a00003 	mov	r0, r3
     2c8:	e59f1038 	ldr	r1, [pc, #56]	; 308 <main+0x8c>
     2cc:	e51b2010 	ldr	r2, [fp, #-16]
     2d0:	eb00032e 	bl	f90 <sprintf>
     2d4:	e3a00000 	mov	r0, #0	; 0x0
     2d8:	e3a01000 	mov	r1, #0	; 0x0
     2dc:	eb0000d0 	bl	624 <display_set_cursor>
     2e0:	e24b301b 	sub	r3, fp, #27	; 0x1b
     2e4:	e1a00003 	mov	r0, r3
     2e8:	eb0000bb 	bl	5dc <display_putstr>
     2ec:	e3a00000 	mov	r0, #0	; 0x0
     2f0:	e3a01001 	mov	r1, #1	; 0x1
     2f4:	eb0000ca 	bl	624 <display_set_cursor>
     2f8:	e59f000c 	ldr	r0, [pc, #12]	; 30c <main+0x90>
     2fc:	e51b1010 	ldr	r1, [fp, #-16]
     300:	eb0000dc 	bl	678 <display_printf>
     304:	eaffffe7 	b	2a8 <main+0x2c>
     308:	00008e34 	.word	0x00008e34
     30c:	00008e38 	.word	0x00008e38

00000310 <delay1us>:
     310:	e58b0000 	str	r0, [fp]
     314:	e1a03100 	lsl	r3, r0, #2

00000318 <Label>:
     318:	e3530000 	cmp	r3, #0	; 0x0
     31c:	0a000001 	beq	328 <Ende>
     320:	e2433001 	sub	r3, r3, #1	; 0x1
     324:	eafffffb 	b	318 <Label>

00000328 <Ende>:
     328:	e1a0f00e 	mov	pc, lr

0000032c <lcd_write>:
     32c:	e1a0c00d 	mov	ip, sp
     330:	e92dd800 	push	{fp, ip, lr, pc}
     334:	e24cb004 	sub	fp, ip, #4	; 0x4
     338:	e24dd008 	sub	sp, sp, #8	; 0x8
     33c:	e1a03000 	mov	r3, r0
     340:	e1a02001 	mov	r2, r1
     344:	e54b3010 	strb	r3, [fp, #-16]
     348:	e1a03002 	mov	r3, r2
     34c:	e54b3014 	strb	r3, [fp, #-20]
     350:	e3a0320a 	mov	r3, #-1610612736	; 0xa0000000
     354:	e1a039c3 	asr	r3, r3, #19
     358:	e3a02302 	mov	r2, #134217728	; 0x8000000
     35c:	e5832034 	str	r2, [r3, #52]
     360:	e55b3014 	ldrb	r3, [fp, #-20]
     364:	e3530000 	cmp	r3, #0	; 0x0
     368:	0a000004 	beq	380 <lcd_write+0x54>
     36c:	e3a0320a 	mov	r3, #-1610612736	; 0xa0000000
     370:	e1a039c3 	asr	r3, r3, #19
     374:	e3a02202 	mov	r2, #536870912	; 0x20000000
     378:	e5832030 	str	r2, [r3, #48]
     37c:	ea000003 	b	390 <lcd_write+0x64>
     380:	e3a0320a 	mov	r3, #-1610612736	; 0xa0000000
     384:	e1a039c3 	asr	r3, r3, #19
     388:	e3a02202 	mov	r2, #536870912	; 0x20000000
     38c:	e5832034 	str	r2, [r3, #52]
     390:	e3a0220a 	mov	r2, #-1610612736	; 0xa0000000
     394:	e1a029c2 	asr	r2, r2, #19
     398:	e3a03407 	mov	r3, #117440512	; 0x7000000
     39c:	e2833c1f 	add	r3, r3, #7936	; 0x1f00
     3a0:	e5823034 	str	r3, [r2, #52]
     3a4:	e55b3010 	ldrb	r3, [fp, #-16]
     3a8:	e2033001 	and	r3, r3, #1	; 0x1
     3ac:	e20330ff 	and	r3, r3, #255	; 0xff
     3b0:	e3530000 	cmp	r3, #0	; 0x0
     3b4:	0a000003 	beq	3c8 <lcd_write+0x9c>
     3b8:	e3a0320a 	mov	r3, #-1610612736	; 0xa0000000
     3bc:	e1a039c3 	asr	r3, r3, #19
     3c0:	e3a02c01 	mov	r2, #256	; 0x100
     3c4:	e5832030 	str	r2, [r3, #48]
     3c8:	e55b3010 	ldrb	r3, [fp, #-16]
     3cc:	e2033002 	and	r3, r3, #2	; 0x2
     3d0:	e3530000 	cmp	r3, #0	; 0x0
     3d4:	0a000003 	beq	3e8 <lcd_write+0xbc>
     3d8:	e3a0320a 	mov	r3, #-1610612736	; 0xa0000000
     3dc:	e1a039c3 	asr	r3, r3, #19
     3e0:	e3a02c02 	mov	r2, #512	; 0x200
     3e4:	e5832030 	str	r2, [r3, #48]
     3e8:	e55b3010 	ldrb	r3, [fp, #-16]
     3ec:	e2033004 	and	r3, r3, #4	; 0x4
     3f0:	e3530000 	cmp	r3, #0	; 0x0
     3f4:	0a000003 	beq	408 <lcd_write+0xdc>
     3f8:	e3a0320a 	mov	r3, #-1610612736	; 0xa0000000
     3fc:	e1a039c3 	asr	r3, r3, #19
     400:	e3a02b01 	mov	r2, #1024	; 0x400
     404:	e5832030 	str	r2, [r3, #48]
     408:	e55b3010 	ldrb	r3, [fp, #-16]
     40c:	e2033008 	and	r3, r3, #8	; 0x8
     410:	e3530000 	cmp	r3, #0	; 0x0
     414:	0a000003 	beq	428 <lcd_write+0xfc>
     418:	e3a0320a 	mov	r3, #-1610612736	; 0xa0000000
     41c:	e1a039c3 	asr	r3, r3, #19
     420:	e3a02b02 	mov	r2, #2048	; 0x800
     424:	e5832030 	str	r2, [r3, #48]
     428:	e55b3010 	ldrb	r3, [fp, #-16]
     42c:	e2033010 	and	r3, r3, #16	; 0x10
     430:	e3530000 	cmp	r3, #0	; 0x0
     434:	0a000003 	beq	448 <lcd_write+0x11c>
     438:	e3a0320a 	mov	r3, #-1610612736	; 0xa0000000
     43c:	e1a039c3 	asr	r3, r3, #19
     440:	e3a02a01 	mov	r2, #4096	; 0x1000
     444:	e5832030 	str	r2, [r3, #48]
     448:	e55b3010 	ldrb	r3, [fp, #-16]
     44c:	e2033020 	and	r3, r3, #32	; 0x20
     450:	e3530000 	cmp	r3, #0	; 0x0
     454:	0a000003 	beq	468 <lcd_write+0x13c>
     458:	e3a0320a 	mov	r3, #-1610612736	; 0xa0000000
     45c:	e1a039c3 	asr	r3, r3, #19
     460:	e3a02301 	mov	r2, #67108864	; 0x4000000
     464:	e5832030 	str	r2, [r3, #48]
     468:	e55b3010 	ldrb	r3, [fp, #-16]
     46c:	e2033040 	and	r3, r3, #64	; 0x40
     470:	e3530000 	cmp	r3, #0	; 0x0
     474:	0a000003 	beq	488 <lcd_write+0x15c>
     478:	e3a0320a 	mov	r3, #-1610612736	; 0xa0000000
     47c:	e1a039c3 	asr	r3, r3, #19
     480:	e3a02402 	mov	r2, #33554432	; 0x2000000
     484:	e5832030 	str	r2, [r3, #48]
     488:	e55b3010 	ldrb	r3, [fp, #-16]
     48c:	e1a03c03 	lsl	r3, r3, #24
     490:	e1a03c43 	asr	r3, r3, #24
     494:	e3530000 	cmp	r3, #0	; 0x0
     498:	aa000003 	bge	4ac <lcd_write+0x180>
     49c:	e3a0320a 	mov	r3, #-1610612736	; 0xa0000000
     4a0:	e1a039c3 	asr	r3, r3, #19
     4a4:	e3a02401 	mov	r2, #16777216	; 0x1000000
     4a8:	e5832030 	str	r2, [r3, #48]
     4ac:	e3a00001 	mov	r0, #1	; 0x1
     4b0:	ebffff96 	bl	310 <delay1us>
     4b4:	e3a0320a 	mov	r3, #-1610612736	; 0xa0000000
     4b8:	e1a039c3 	asr	r3, r3, #19
     4bc:	e3a02080 	mov	r2, #128	; 0x80
     4c0:	e5832030 	str	r2, [r3, #48]
     4c4:	e3a00032 	mov	r0, #50	; 0x32
     4c8:	ebffff90 	bl	310 <delay1us>
     4cc:	e3a0320a 	mov	r3, #-1610612736	; 0xa0000000
     4d0:	e1a039c3 	asr	r3, r3, #19
     4d4:	e3a02080 	mov	r2, #128	; 0x80
     4d8:	e5832034 	str	r2, [r3, #52]
     4dc:	e24bd00c 	sub	sp, fp, #12	; 0xc
     4e0:	e89da800 	ldm	sp, {fp, sp, pc}

000004e4 <display_init>:
     4e4:	e1a0c00d 	mov	ip, sp
     4e8:	e92dd800 	push	{fp, ip, lr, pc}
     4ec:	e24cb004 	sub	fp, ip, #4	; 0x4
     4f0:	e3a0220a 	mov	r2, #-1610612736	; 0xa0000000
     4f4:	e1a029c2 	asr	r2, r2, #19
     4f8:	e3a0342f 	mov	r3, #788529152	; 0x2f000000
     4fc:	e2833d7e 	add	r3, r3, #8064	; 0x1f80
     500:	e5823060 	str	r3, [r2, #96]
     504:	e3a0220a 	mov	r2, #-1610612736	; 0xa0000000
     508:	e1a029c2 	asr	r2, r2, #19
     50c:	e3a0342f 	mov	r3, #788529152	; 0x2f000000
     510:	e2833d7e 	add	r3, r3, #8064	; 0x1f80
     514:	e5823010 	str	r3, [r2, #16]
     518:	e3a0220a 	mov	r2, #-1610612736	; 0xa0000000
     51c:	e1a029c2 	asr	r2, r2, #19
     520:	e3a0342f 	mov	r3, #788529152	; 0x2f000000
     524:	e2833d7e 	add	r3, r3, #8064	; 0x1f80
     528:	e5823034 	str	r3, [r2, #52]
     52c:	e3a00dea 	mov	r0, #14976	; 0x3a80
     530:	e2800018 	add	r0, r0, #24	; 0x18
     534:	ebffff75 	bl	310 <delay1us>
     538:	e3a00030 	mov	r0, #48	; 0x30
     53c:	e3a01000 	mov	r1, #0	; 0x0
     540:	ebffff79 	bl	32c <lcd_write>
     544:	e3a00a01 	mov	r0, #4096	; 0x1000
     548:	e2800004 	add	r0, r0, #4	; 0x4
     54c:	ebffff6f 	bl	310 <delay1us>
     550:	e3a00030 	mov	r0, #48	; 0x30
     554:	e3a01000 	mov	r1, #0	; 0x0
     558:	ebffff73 	bl	32c <lcd_write>
     55c:	e3a00064 	mov	r0, #100	; 0x64
     560:	ebffff6a 	bl	310 <delay1us>
     564:	e3a00030 	mov	r0, #48	; 0x30
     568:	e3a01000 	mov	r1, #0	; 0x0
     56c:	ebffff6e 	bl	32c <lcd_write>
     570:	e3a00038 	mov	r0, #56	; 0x38
     574:	e3a01000 	mov	r1, #0	; 0x0
     578:	ebffff6b 	bl	32c <lcd_write>
     57c:	e3a0000c 	mov	r0, #12	; 0xc
     580:	e3a01000 	mov	r1, #0	; 0x0
     584:	ebffff68 	bl	32c <lcd_write>
     588:	e3a00006 	mov	r0, #6	; 0x6
     58c:	e3a01000 	mov	r1, #0	; 0x0
     590:	ebffff65 	bl	32c <lcd_write>
     594:	e3a00001 	mov	r0, #1	; 0x1
     598:	e3a01000 	mov	r1, #0	; 0x0
     59c:	ebffff62 	bl	32c <lcd_write>
     5a0:	e3a00d4e 	mov	r0, #4992	; 0x1380
     5a4:	e2800008 	add	r0, r0, #8	; 0x8
     5a8:	ebffff58 	bl	310 <delay1us>
     5ac:	e89da800 	ldm	sp, {fp, sp, pc}

000005b0 <display_putchar>:
     5b0:	e1a0c00d 	mov	ip, sp
     5b4:	e92dd800 	push	{fp, ip, lr, pc}
     5b8:	e24cb004 	sub	fp, ip, #4	; 0x4
     5bc:	e24dd004 	sub	sp, sp, #4	; 0x4
     5c0:	e1a03000 	mov	r3, r0
     5c4:	e54b3010 	strb	r3, [fp, #-16]
     5c8:	e55b3010 	ldrb	r3, [fp, #-16]
     5cc:	e1a00003 	mov	r0, r3
     5d0:	e3a01001 	mov	r1, #1	; 0x1
     5d4:	ebffff54 	bl	32c <lcd_write>
     5d8:	e89da808 	ldm	sp, {r3, fp, sp, pc}

000005dc <display_putstr>:
     5dc:	e1a0c00d 	mov	ip, sp
     5e0:	e92dd800 	push	{fp, ip, lr, pc}
     5e4:	e24cb004 	sub	fp, ip, #4	; 0x4
     5e8:	e24dd004 	sub	sp, sp, #4	; 0x4
     5ec:	e50b0010 	str	r0, [fp, #-16]
     5f0:	ea000006 	b	610 <display_putstr+0x34>
     5f4:	e51b3010 	ldr	r3, [fp, #-16]
     5f8:	e5d33000 	ldrb	r3, [r3]
     5fc:	e1a00003 	mov	r0, r3
     600:	ebffffea 	bl	5b0 <display_putchar>
     604:	e51b3010 	ldr	r3, [fp, #-16]
     608:	e2833001 	add	r3, r3, #1	; 0x1
     60c:	e50b3010 	str	r3, [fp, #-16]
     610:	e51b3010 	ldr	r3, [fp, #-16]
     614:	e5d33000 	ldrb	r3, [r3]
     618:	e3530000 	cmp	r3, #0	; 0x0
     61c:	1afffff4 	bne	5f4 <display_putstr+0x18>
     620:	e89da808 	ldm	sp, {r3, fp, sp, pc}

00000624 <display_set_cursor>:
     624:	e1a0c00d 	mov	ip, sp
     628:	e92dd800 	push	{fp, ip, lr, pc}
     62c:	e24cb004 	sub	fp, ip, #4	; 0x4
     630:	e24dd008 	sub	sp, sp, #8	; 0x8
     634:	e1a03000 	mov	r3, r0
     638:	e1a02001 	mov	r2, r1
     63c:	e54b3010 	strb	r3, [fp, #-16]
     640:	e1a03002 	mov	r3, r2
     644:	e54b3014 	strb	r3, [fp, #-20]
     648:	e55b3014 	ldrb	r3, [fp, #-20]
     64c:	e2833002 	add	r3, r3, #2	; 0x2
     650:	e1a03303 	lsl	r3, r3, #6
     654:	e20320ff 	and	r2, r3, #255	; 0xff
     658:	e55b3010 	ldrb	r3, [fp, #-16]
     65c:	e0823003 	add	r3, r2, r3
     660:	e20330ff 	and	r3, r3, #255	; 0xff
     664:	e1a00003 	mov	r0, r3
     668:	e3a01000 	mov	r1, #0	; 0x0
     66c:	ebffff2e 	bl	32c <lcd_write>
     670:	e24bd00c 	sub	sp, fp, #12	; 0xc
     674:	e89da800 	ldm	sp, {fp, sp, pc}

00000678 <display_printf>:
     678:	e1a0c00d 	mov	ip, sp
     67c:	e92d000f 	push	{r0, r1, r2, r3}
     680:	e92dd810 	push	{r4, fp, ip, lr, pc}
     684:	e24cb014 	sub	fp, ip, #20	; 0x14
     688:	e24dd044 	sub	sp, sp, #68	; 0x44
     68c:	e59f366c 	ldr	r3, [pc, #1644]	; d00 <display_printf+0x688>
     690:	e24b204a 	sub	r2, fp, #74	; 0x4a
     694:	e3a0c011 	mov	ip, #17	; 0x11
     698:	e1a00002 	mov	r0, r2
     69c:	e1a01003 	mov	r1, r3
     6a0:	e1a0200c 	mov	r2, ip
     6a4:	eb0001fa 	bl	e94 <memcpy>
     6a8:	e28b3008 	add	r3, fp, #8	; 0x8
     6ac:	e50b3050 	str	r3, [fp, #-80]
     6b0:	e59b3004 	ldr	r3, [fp, #4]
     6b4:	e50b3014 	str	r3, [fp, #-20]
     6b8:	ea00018a 	b	ce8 <display_printf+0x670>
     6bc:	e51b3014 	ldr	r3, [fp, #-20]
     6c0:	e5d33000 	ldrb	r3, [r3]
     6c4:	e3530025 	cmp	r3, #37	; 0x25
     6c8:	1a00017f 	bne	ccc <display_printf+0x654>
     6cc:	e3a03000 	mov	r3, #0	; 0x0
     6d0:	e54b3025 	strb	r3, [fp, #-37]
     6d4:	e55b1025 	ldrb	r1, [fp, #-37]
     6d8:	e51b3014 	ldr	r3, [fp, #-20]
     6dc:	e5d30000 	ldrb	r0, [r3]
     6e0:	e3e02028 	mvn	r2, #40	; 0x28
     6e4:	e24bc010 	sub	ip, fp, #16	; 0x10
     6e8:	e08c3001 	add	r3, ip, r1
     6ec:	e0832002 	add	r2, r3, r2
     6f0:	e1a03000 	mov	r3, r0
     6f4:	e5c23000 	strb	r3, [r2]
     6f8:	e55b3025 	ldrb	r3, [fp, #-37]
     6fc:	e2833001 	add	r3, r3, #1	; 0x1
     700:	e54b3025 	strb	r3, [fp, #-37]
     704:	e51b3014 	ldr	r3, [fp, #-20]
     708:	e2833001 	add	r3, r3, #1	; 0x1
     70c:	e50b3014 	str	r3, [fp, #-20]
     710:	e55b3025 	ldrb	r3, [fp, #-37]
     714:	e3530012 	cmp	r3, #18	; 0x12
     718:	9a000001 	bls	724 <display_printf+0xac>
     71c:	e3a03012 	mov	r3, #18	; 0x12
     720:	e54b3025 	strb	r3, [fp, #-37]
     724:	e51b3014 	ldr	r3, [fp, #-20]
     728:	e5d33000 	ldrb	r3, [r3]
     72c:	e3530064 	cmp	r3, #100	; 0x64
     730:	13a03000 	movne	r3, #0	; 0x0
     734:	03a03001 	moveq	r3, #1	; 0x1
     738:	e20320ff 	and	r2, r3, #255	; 0xff
     73c:	e51b3014 	ldr	r3, [fp, #-20]
     740:	e5d33000 	ldrb	r3, [r3]
     744:	e3530069 	cmp	r3, #105	; 0x69
     748:	13a03000 	movne	r3, #0	; 0x0
     74c:	03a03001 	moveq	r3, #1	; 0x1
     750:	e20330ff 	and	r3, r3, #255	; 0xff
     754:	e1823003 	orr	r3, r2, r3
     758:	e20330ff 	and	r3, r3, #255	; 0xff
     75c:	e1a02003 	mov	r2, r3
     760:	e51b3014 	ldr	r3, [fp, #-20]
     764:	e5d33000 	ldrb	r3, [r3]
     768:	e353006f 	cmp	r3, #111	; 0x6f
     76c:	13a03000 	movne	r3, #0	; 0x0
     770:	03a03001 	moveq	r3, #1	; 0x1
     774:	e1822003 	orr	r2, r2, r3
     778:	e51b3014 	ldr	r3, [fp, #-20]
     77c:	e5d33000 	ldrb	r3, [r3]
     780:	e3530078 	cmp	r3, #120	; 0x78
     784:	13a03000 	movne	r3, #0	; 0x0
     788:	03a03001 	moveq	r3, #1	; 0x1
     78c:	e1822003 	orr	r2, r2, r3
     790:	e51b3014 	ldr	r3, [fp, #-20]
     794:	e5d33000 	ldrb	r3, [r3]
     798:	e3530058 	cmp	r3, #88	; 0x58
     79c:	13a03000 	movne	r3, #0	; 0x0
     7a0:	03a03001 	moveq	r3, #1	; 0x1
     7a4:	e1822003 	orr	r2, r2, r3
     7a8:	e51b3014 	ldr	r3, [fp, #-20]
     7ac:	e5d33000 	ldrb	r3, [r3]
     7b0:	e3530075 	cmp	r3, #117	; 0x75
     7b4:	13a03000 	movne	r3, #0	; 0x0
     7b8:	03a03001 	moveq	r3, #1	; 0x1
     7bc:	e1822003 	orr	r2, r2, r3
     7c0:	e51b3014 	ldr	r3, [fp, #-20]
     7c4:	e5d33000 	ldrb	r3, [r3]
     7c8:	e3530063 	cmp	r3, #99	; 0x63
     7cc:	13a03000 	movne	r3, #0	; 0x0
     7d0:	03a03001 	moveq	r3, #1	; 0x1
     7d4:	e1822003 	orr	r2, r2, r3
     7d8:	e51b3014 	ldr	r3, [fp, #-20]
     7dc:	e5d33000 	ldrb	r3, [r3]
     7e0:	e3530073 	cmp	r3, #115	; 0x73
     7e4:	13a03000 	movne	r3, #0	; 0x0
     7e8:	03a03001 	moveq	r3, #1	; 0x1
     7ec:	e1822003 	orr	r2, r2, r3
     7f0:	e51b3014 	ldr	r3, [fp, #-20]
     7f4:	e5d33000 	ldrb	r3, [r3]
     7f8:	e3530066 	cmp	r3, #102	; 0x66
     7fc:	13a03000 	movne	r3, #0	; 0x0
     800:	03a03001 	moveq	r3, #1	; 0x1
     804:	e1822003 	orr	r2, r2, r3
     808:	e51b3014 	ldr	r3, [fp, #-20]
     80c:	e5d33000 	ldrb	r3, [r3]
     810:	e3530065 	cmp	r3, #101	; 0x65
     814:	13a03000 	movne	r3, #0	; 0x0
     818:	03a03001 	moveq	r3, #1	; 0x1
     81c:	e1822003 	orr	r2, r2, r3
     820:	e51b3014 	ldr	r3, [fp, #-20]
     824:	e5d33000 	ldrb	r3, [r3]
     828:	e3530045 	cmp	r3, #69	; 0x45
     82c:	13a03000 	movne	r3, #0	; 0x0
     830:	03a03001 	moveq	r3, #1	; 0x1
     834:	e1822003 	orr	r2, r2, r3
     838:	e51b3014 	ldr	r3, [fp, #-20]
     83c:	e5d33000 	ldrb	r3, [r3]
     840:	e3530067 	cmp	r3, #103	; 0x67
     844:	13a03000 	movne	r3, #0	; 0x0
     848:	03a03001 	moveq	r3, #1	; 0x1
     84c:	e1822003 	orr	r2, r2, r3
     850:	e51b3014 	ldr	r3, [fp, #-20]
     854:	e5d33000 	ldrb	r3, [r3]
     858:	e3530047 	cmp	r3, #71	; 0x47
     85c:	13a03000 	movne	r3, #0	; 0x0
     860:	03a03001 	moveq	r3, #1	; 0x1
     864:	e1822003 	orr	r2, r2, r3
     868:	e51b3014 	ldr	r3, [fp, #-20]
     86c:	e5d33000 	ldrb	r3, [r3]
     870:	e3530025 	cmp	r3, #37	; 0x25
     874:	13a03000 	movne	r3, #0	; 0x0
     878:	03a03001 	moveq	r3, #1	; 0x1
     87c:	e1823003 	orr	r3, r2, r3
     880:	e3530000 	cmp	r3, #0	; 0x0
     884:	0affff92 	beq	6d4 <display_printf+0x5c>
     888:	e55b1025 	ldrb	r1, [fp, #-37]
     88c:	e51b3014 	ldr	r3, [fp, #-20]
     890:	e5d30000 	ldrb	r0, [r3]
     894:	e3e02028 	mvn	r2, #40	; 0x28
     898:	e24bc010 	sub	ip, fp, #16	; 0x10
     89c:	e08c3001 	add	r3, ip, r1
     8a0:	e0832002 	add	r2, r3, r2
     8a4:	e1a03000 	mov	r3, r0
     8a8:	e5c23000 	strb	r3, [r2]
     8ac:	e55b3025 	ldrb	r3, [fp, #-37]
     8b0:	e2833001 	add	r3, r3, #1	; 0x1
     8b4:	e54b3025 	strb	r3, [fp, #-37]
     8b8:	e55b3025 	ldrb	r3, [fp, #-37]
     8bc:	e3e02028 	mvn	r2, #40	; 0x28
     8c0:	e24b1010 	sub	r1, fp, #16	; 0x10
     8c4:	e0813003 	add	r3, r1, r3
     8c8:	e0832002 	add	r2, r3, r2
     8cc:	e3a03000 	mov	r3, #0	; 0x0
     8d0:	e5c23000 	strb	r3, [r2]
     8d4:	e51b3014 	ldr	r3, [fp, #-20]
     8d8:	e5d33000 	ldrb	r3, [r3]
     8dc:	e3530064 	cmp	r3, #100	; 0x64
     8e0:	13a03000 	movne	r3, #0	; 0x0
     8e4:	03a03001 	moveq	r3, #1	; 0x1
     8e8:	e20320ff 	and	r2, r3, #255	; 0xff
     8ec:	e51b3014 	ldr	r3, [fp, #-20]
     8f0:	e5d33000 	ldrb	r3, [r3]
     8f4:	e3530069 	cmp	r3, #105	; 0x69
     8f8:	13a03000 	movne	r3, #0	; 0x0
     8fc:	03a03001 	moveq	r3, #1	; 0x1
     900:	e20330ff 	and	r3, r3, #255	; 0xff
     904:	e1823003 	orr	r3, r2, r3
     908:	e20330ff 	and	r3, r3, #255	; 0xff
     90c:	e3530000 	cmp	r3, #0	; 0x0
     910:	0a00004f 	beq	a54 <display_printf+0x3dc>
     914:	e51b2050 	ldr	r2, [fp, #-80]
     918:	e2823004 	add	r3, r2, #4	; 0x4
     91c:	e50b3050 	str	r3, [fp, #-80]
     920:	e1a03002 	mov	r3, r2
     924:	e5933000 	ldr	r3, [r3]
     928:	e50b3020 	str	r3, [fp, #-32]
     92c:	e51b3020 	ldr	r3, [fp, #-32]
     930:	e3530000 	cmp	r3, #0	; 0x0
     934:	aa000004 	bge	94c <display_printf+0x2d4>
     938:	e3a0002d 	mov	r0, #45	; 0x2d
     93c:	ebffff1b 	bl	5b0 <display_putchar>
     940:	e51b3020 	ldr	r3, [fp, #-32]
     944:	e2633000 	rsb	r3, r3, #0	; 0x0
     948:	e50b3020 	str	r3, [fp, #-32]
     94c:	e51b3020 	ldr	r3, [fp, #-32]
     950:	e3530000 	cmp	r3, #0	; 0x0
     954:	1a000002 	bne	964 <display_printf+0x2ec>
     958:	e3a00030 	mov	r0, #48	; 0x30
     95c:	ebffff13 	bl	5b0 <display_putchar>
     960:	ea00003b 	b	a54 <display_printf+0x3dc>
     964:	e3a0300f 	mov	r3, #15	; 0xf
     968:	e54b3025 	strb	r3, [fp, #-37]
     96c:	ea000023 	b	a00 <display_printf+0x388>
     970:	e55b0025 	ldrb	r0, [fp, #-37]
     974:	e51b1020 	ldr	r1, [fp, #-32]
     978:	e59f3384 	ldr	r3, [pc, #900]	; d04 <display_printf+0x68c>
     97c:	e0c32391 	smull	r2, r3, r1, r3
     980:	e1a02143 	asr	r2, r3, #2
     984:	e1a03fc1 	asr	r3, r1, #31
     988:	e0633002 	rsb	r3, r3, r2
     98c:	e50b3054 	str	r3, [fp, #-84]
     990:	e51b3054 	ldr	r3, [fp, #-84]
     994:	e1a03083 	lsl	r3, r3, #1
     998:	e1a02103 	lsl	r2, r3, #2
     99c:	e0833002 	add	r3, r3, r2
     9a0:	e0633001 	rsb	r3, r3, r1
     9a4:	e50b3054 	str	r3, [fp, #-84]
     9a8:	e3e02039 	mvn	r2, #57	; 0x39
     9ac:	e24bc010 	sub	ip, fp, #16	; 0x10
     9b0:	e51b1054 	ldr	r1, [fp, #-84]
     9b4:	e08c3001 	add	r3, ip, r1
     9b8:	e0833002 	add	r3, r3, r2
     9bc:	e5d31000 	ldrb	r1, [r3]
     9c0:	e3e02028 	mvn	r2, #40	; 0x28
     9c4:	e24bc010 	sub	ip, fp, #16	; 0x10
     9c8:	e08c3000 	add	r3, ip, r0
     9cc:	e0832002 	add	r2, r3, r2
     9d0:	e1a03001 	mov	r3, r1
     9d4:	e5c23000 	strb	r3, [r2]
     9d8:	e51b1020 	ldr	r1, [fp, #-32]
     9dc:	e59f3320 	ldr	r3, [pc, #800]	; d04 <display_printf+0x68c>
     9e0:	e0c32391 	smull	r2, r3, r1, r3
     9e4:	e1a02143 	asr	r2, r3, #2
     9e8:	e1a03fc1 	asr	r3, r1, #31
     9ec:	e0633002 	rsb	r3, r3, r2
     9f0:	e50b3020 	str	r3, [fp, #-32]
     9f4:	e55b3025 	ldrb	r3, [fp, #-37]
     9f8:	e2433001 	sub	r3, r3, #1	; 0x1
     9fc:	e54b3025 	strb	r3, [fp, #-37]
     a00:	e55b3025 	ldrb	r3, [fp, #-37]
     a04:	e3530000 	cmp	r3, #0	; 0x0
     a08:	0a00000e 	beq	a48 <display_printf+0x3d0>
     a0c:	e51b3020 	ldr	r3, [fp, #-32]
     a10:	e3530000 	cmp	r3, #0	; 0x0
     a14:	1affffd5 	bne	970 <display_printf+0x2f8>
     a18:	ea00000a 	b	a48 <display_printf+0x3d0>
     a1c:	e55b3025 	ldrb	r3, [fp, #-37]
     a20:	e2833001 	add	r3, r3, #1	; 0x1
     a24:	e54b3025 	strb	r3, [fp, #-37]
     a28:	e55b3025 	ldrb	r3, [fp, #-37]
     a2c:	e3e02028 	mvn	r2, #40	; 0x28
     a30:	e24bc010 	sub	ip, fp, #16	; 0x10
     a34:	e08c3003 	add	r3, ip, r3
     a38:	e0833002 	add	r3, r3, r2
     a3c:	e5d33000 	ldrb	r3, [r3]
     a40:	e1a00003 	mov	r0, r3
     a44:	ebfffed9 	bl	5b0 <display_putchar>
     a48:	e55b3025 	ldrb	r3, [fp, #-37]
     a4c:	e353000e 	cmp	r3, #14	; 0xe
     a50:	9afffff1 	bls	a1c <display_printf+0x3a4>
     a54:	e51b3014 	ldr	r3, [fp, #-20]
     a58:	e5d33000 	ldrb	r3, [r3]
     a5c:	e3530078 	cmp	r3, #120	; 0x78
     a60:	13a03000 	movne	r3, #0	; 0x0
     a64:	03a03001 	moveq	r3, #1	; 0x1
     a68:	e20320ff 	and	r2, r3, #255	; 0xff
     a6c:	e51b3014 	ldr	r3, [fp, #-20]
     a70:	e5d33000 	ldrb	r3, [r3]
     a74:	e3530058 	cmp	r3, #88	; 0x58
     a78:	13a03000 	movne	r3, #0	; 0x0
     a7c:	03a03001 	moveq	r3, #1	; 0x1
     a80:	e20330ff 	and	r3, r3, #255	; 0xff
     a84:	e1823003 	orr	r3, r2, r3
     a88:	e20330ff 	and	r3, r3, #255	; 0xff
     a8c:	e3530000 	cmp	r3, #0	; 0x0
     a90:	0a000037 	beq	b74 <display_printf+0x4fc>
     a94:	e51b2050 	ldr	r2, [fp, #-80]
     a98:	e2823004 	add	r3, r2, #4	; 0x4
     a9c:	e50b3050 	str	r3, [fp, #-80]
     aa0:	e1a03002 	mov	r3, r2
     aa4:	e5933000 	ldr	r3, [r3]
     aa8:	e50b3024 	str	r3, [fp, #-36]
     aac:	e51b3024 	ldr	r3, [fp, #-36]
     ab0:	e3530000 	cmp	r3, #0	; 0x0
     ab4:	1a000002 	bne	ac4 <display_printf+0x44c>
     ab8:	e3a00030 	mov	r0, #48	; 0x30
     abc:	ebfffebb 	bl	5b0 <display_putchar>
     ac0:	ea00002b 	b	b74 <display_printf+0x4fc>
     ac4:	e3a0300f 	mov	r3, #15	; 0xf
     ac8:	e54b3025 	strb	r3, [fp, #-37]
     acc:	ea000013 	b	b20 <display_printf+0x4a8>
     ad0:	e55b0025 	ldrb	r0, [fp, #-37]
     ad4:	e51b3024 	ldr	r3, [fp, #-36]
     ad8:	e203300f 	and	r3, r3, #15	; 0xf
     adc:	e3e02039 	mvn	r2, #57	; 0x39
     ae0:	e24b1010 	sub	r1, fp, #16	; 0x10
     ae4:	e0813003 	add	r3, r1, r3
     ae8:	e0833002 	add	r3, r3, r2
     aec:	e5d31000 	ldrb	r1, [r3]
     af0:	e3e02028 	mvn	r2, #40	; 0x28
     af4:	e24bc010 	sub	ip, fp, #16	; 0x10
     af8:	e08c3000 	add	r3, ip, r0
     afc:	e0832002 	add	r2, r3, r2
     b00:	e1a03001 	mov	r3, r1
     b04:	e5c23000 	strb	r3, [r2]
     b08:	e51b3024 	ldr	r3, [fp, #-36]
     b0c:	e1a03223 	lsr	r3, r3, #4
     b10:	e50b3024 	str	r3, [fp, #-36]
     b14:	e55b3025 	ldrb	r3, [fp, #-37]
     b18:	e2433001 	sub	r3, r3, #1	; 0x1
     b1c:	e54b3025 	strb	r3, [fp, #-37]
     b20:	e55b3025 	ldrb	r3, [fp, #-37]
     b24:	e3530000 	cmp	r3, #0	; 0x0
     b28:	0a00000e 	beq	b68 <display_printf+0x4f0>
     b2c:	e51b3024 	ldr	r3, [fp, #-36]
     b30:	e3530000 	cmp	r3, #0	; 0x0
     b34:	1affffe5 	bne	ad0 <display_printf+0x458>
     b38:	ea00000a 	b	b68 <display_printf+0x4f0>
     b3c:	e55b3025 	ldrb	r3, [fp, #-37]
     b40:	e2833001 	add	r3, r3, #1	; 0x1
     b44:	e54b3025 	strb	r3, [fp, #-37]
     b48:	e55b3025 	ldrb	r3, [fp, #-37]
     b4c:	e3e02028 	mvn	r2, #40	; 0x28
     b50:	e24b1010 	sub	r1, fp, #16	; 0x10
     b54:	e0813003 	add	r3, r1, r3
     b58:	e0833002 	add	r3, r3, r2
     b5c:	e5d33000 	ldrb	r3, [r3]
     b60:	e1a00003 	mov	r0, r3
     b64:	ebfffe91 	bl	5b0 <display_putchar>
     b68:	e55b3025 	ldrb	r3, [fp, #-37]
     b6c:	e353000e 	cmp	r3, #14	; 0xe
     b70:	9afffff1 	bls	b3c <display_printf+0x4c4>
     b74:	e51b3014 	ldr	r3, [fp, #-20]
     b78:	e5d33000 	ldrb	r3, [r3]
     b7c:	e353006f 	cmp	r3, #111	; 0x6f
     b80:	13a03000 	movne	r3, #0	; 0x0
     b84:	03a03001 	moveq	r3, #1	; 0x1
     b88:	e20320ff 	and	r2, r3, #255	; 0xff
     b8c:	e51b3014 	ldr	r3, [fp, #-20]
     b90:	e5d33000 	ldrb	r3, [r3]
     b94:	e3530075 	cmp	r3, #117	; 0x75
     b98:	13a03000 	movne	r3, #0	; 0x0
     b9c:	03a03001 	moveq	r3, #1	; 0x1
     ba0:	e20330ff 	and	r3, r3, #255	; 0xff
     ba4:	e1823003 	orr	r3, r2, r3
     ba8:	e20330ff 	and	r3, r3, #255	; 0xff
     bac:	e1a02003 	mov	r2, r3
     bb0:	e51b3014 	ldr	r3, [fp, #-20]
     bb4:	e5d33000 	ldrb	r3, [r3]
     bb8:	e3530063 	cmp	r3, #99	; 0x63
     bbc:	13a03000 	movne	r3, #0	; 0x0
     bc0:	03a03001 	moveq	r3, #1	; 0x1
     bc4:	e1822003 	orr	r2, r2, r3
     bc8:	e51b3014 	ldr	r3, [fp, #-20]
     bcc:	e5d33000 	ldrb	r3, [r3]
     bd0:	e3530073 	cmp	r3, #115	; 0x73
     bd4:	13a03000 	movne	r3, #0	; 0x0
     bd8:	03a03001 	moveq	r3, #1	; 0x1
     bdc:	e1823003 	orr	r3, r2, r3
     be0:	e3530000 	cmp	r3, #0	; 0x0
     be4:	0a000005 	beq	c00 <display_printf+0x588>
     be8:	e51b2050 	ldr	r2, [fp, #-80]
     bec:	e2823004 	add	r3, r2, #4	; 0x4
     bf0:	e50b3050 	str	r3, [fp, #-80]
     bf4:	e1a03002 	mov	r3, r2
     bf8:	e5933000 	ldr	r3, [r3]
     bfc:	e50b3024 	str	r3, [fp, #-36]
     c00:	e51b3014 	ldr	r3, [fp, #-20]
     c04:	e5d33000 	ldrb	r3, [r3]
     c08:	e3530066 	cmp	r3, #102	; 0x66
     c0c:	13a03000 	movne	r3, #0	; 0x0
     c10:	03a03001 	moveq	r3, #1	; 0x1
     c14:	e20320ff 	and	r2, r3, #255	; 0xff
     c18:	e51b3014 	ldr	r3, [fp, #-20]
     c1c:	e5d33000 	ldrb	r3, [r3]
     c20:	e3530065 	cmp	r3, #101	; 0x65
     c24:	13a03000 	movne	r3, #0	; 0x0
     c28:	03a03001 	moveq	r3, #1	; 0x1
     c2c:	e20330ff 	and	r3, r3, #255	; 0xff
     c30:	e1823003 	orr	r3, r2, r3
     c34:	e20330ff 	and	r3, r3, #255	; 0xff
     c38:	e1a02003 	mov	r2, r3
     c3c:	e51b3014 	ldr	r3, [fp, #-20]
     c40:	e5d33000 	ldrb	r3, [r3]
     c44:	e3530045 	cmp	r3, #69	; 0x45
     c48:	13a03000 	movne	r3, #0	; 0x0
     c4c:	03a03001 	moveq	r3, #1	; 0x1
     c50:	e1822003 	orr	r2, r2, r3
     c54:	e51b3014 	ldr	r3, [fp, #-20]
     c58:	e5d33000 	ldrb	r3, [r3]
     c5c:	e3530067 	cmp	r3, #103	; 0x67
     c60:	13a03000 	movne	r3, #0	; 0x0
     c64:	03a03001 	moveq	r3, #1	; 0x1
     c68:	e1822003 	orr	r2, r2, r3
     c6c:	e51b3014 	ldr	r3, [fp, #-20]
     c70:	e5d33000 	ldrb	r3, [r3]
     c74:	e3530047 	cmp	r3, #71	; 0x47
     c78:	13a03000 	movne	r3, #0	; 0x0
     c7c:	03a03001 	moveq	r3, #1	; 0x1
     c80:	e1823003 	orr	r3, r2, r3
     c84:	e3530000 	cmp	r3, #0	; 0x0
     c88:	0a000006 	beq	ca8 <display_printf+0x630>
     c8c:	e51b2050 	ldr	r2, [fp, #-80]
     c90:	e2823008 	add	r3, r2, #8	; 0x8
     c94:	e50b3050 	str	r3, [fp, #-80]
     c98:	e1a03002 	mov	r3, r2
     c9c:	e8930018 	ldm	r3, {r3, r4}
     ca0:	e50b301c 	str	r3, [fp, #-28]
     ca4:	e50b4018 	str	r4, [fp, #-24]
     ca8:	e51b3014 	ldr	r3, [fp, #-20]
     cac:	e5d33000 	ldrb	r3, [r3]
     cb0:	e3530025 	cmp	r3, #37	; 0x25
     cb4:	1a000008 	bne	cdc <display_printf+0x664>
     cb8:	e51b3014 	ldr	r3, [fp, #-20]
     cbc:	e5d33000 	ldrb	r3, [r3]
     cc0:	e1a00003 	mov	r0, r3
     cc4:	ebfffe39 	bl	5b0 <display_putchar>
     cc8:	ea000003 	b	cdc <display_printf+0x664>
     ccc:	e51b3014 	ldr	r3, [fp, #-20]
     cd0:	e5d33000 	ldrb	r3, [r3]
     cd4:	e1a00003 	mov	r0, r3
     cd8:	ebfffe34 	bl	5b0 <display_putchar>
     cdc:	e51b3014 	ldr	r3, [fp, #-20]
     ce0:	e2833001 	add	r3, r3, #1	; 0x1
     ce4:	e50b3014 	str	r3, [fp, #-20]
     ce8:	e51b3014 	ldr	r3, [fp, #-20]
     cec:	e5d33000 	ldrb	r3, [r3]
     cf0:	e3530000 	cmp	r3, #0	; 0x0
     cf4:	1afffe70 	bne	6bc <display_printf+0x44>
     cf8:	e24bd010 	sub	sp, fp, #16	; 0x10
     cfc:	e89da810 	ldm	sp, {r4, fp, sp, pc}
     d00:	00008e3c 	.word	0x00008e3c
     d04:	66666667 	.word	0x66666667

00000d08 <delay5ms>:
     d08:	e1a0c00d 	mov	ip, sp
     d0c:	e92dd800 	push	{fp, ip, lr, pc}
     d10:	e24cb004 	sub	fp, ip, #4	; 0x4
     d14:	e24dd008 	sub	sp, sp, #8	; 0x8
     d18:	e50b0014 	str	r0, [fp, #-20]
     d1c:	ea00000a 	b	d4c <delay5ms+0x44>
     d20:	e3a03000 	mov	r3, #0	; 0x0
     d24:	e50b3010 	str	r3, [fp, #-16]
     d28:	ea000002 	b	d38 <delay5ms+0x30>
     d2c:	e51b3010 	ldr	r3, [fp, #-16]
     d30:	e2833001 	add	r3, r3, #1	; 0x1
     d34:	e50b3010 	str	r3, [fp, #-16]
     d38:	e51b2010 	ldr	r2, [fp, #-16]
     d3c:	e3a03d7f 	mov	r3, #8128	; 0x1fc0
     d40:	e283303f 	add	r3, r3, #63	; 0x3f
     d44:	e1520003 	cmp	r2, r3
     d48:	9afffff7 	bls	d2c <delay5ms+0x24>
     d4c:	e51b3014 	ldr	r3, [fp, #-20]
     d50:	e3530000 	cmp	r3, #0	; 0x0
     d54:	03a03000 	moveq	r3, #0	; 0x0
     d58:	13a03001 	movne	r3, #1	; 0x1
     d5c:	e20320ff 	and	r2, r3, #255	; 0xff
     d60:	e51b3014 	ldr	r3, [fp, #-20]
     d64:	e2433001 	sub	r3, r3, #1	; 0x1
     d68:	e50b3014 	str	r3, [fp, #-20]
     d6c:	e3520000 	cmp	r2, #0	; 0x0
     d70:	1affffea 	bne	d20 <delay5ms+0x18>
     d74:	e24bd00c 	sub	sp, fp, #12	; 0xc
     d78:	e89da800 	ldm	sp, {fp, sp, pc}

00000d7c <delay1ms>:
     d7c:	e1a0c00d 	mov	ip, sp
     d80:	e92dd800 	push	{fp, ip, lr, pc}
     d84:	e24cb004 	sub	fp, ip, #4	; 0x4
     d88:	e24dd008 	sub	sp, sp, #8	; 0x8
     d8c:	e50b0014 	str	r0, [fp, #-20]
     d90:	ea00000a 	b	dc0 <delay1ms+0x44>
     d94:	e3a03000 	mov	r3, #0	; 0x0
     d98:	e50b3010 	str	r3, [fp, #-16]
     d9c:	ea000002 	b	dac <delay1ms+0x30>
     da0:	e51b3010 	ldr	r3, [fp, #-16]
     da4:	e2833001 	add	r3, r3, #1	; 0x1
     da8:	e50b3010 	str	r3, [fp, #-16]
     dac:	e51b2010 	ldr	r2, [fp, #-16]
     db0:	e3a03e66 	mov	r3, #1632	; 0x660
     db4:	e2833005 	add	r3, r3, #5	; 0x5
     db8:	e1520003 	cmp	r2, r3
     dbc:	9afffff7 	bls	da0 <delay1ms+0x24>
     dc0:	e51b3014 	ldr	r3, [fp, #-20]
     dc4:	e3530000 	cmp	r3, #0	; 0x0
     dc8:	03a03000 	moveq	r3, #0	; 0x0
     dcc:	13a03001 	movne	r3, #1	; 0x1
     dd0:	e20320ff 	and	r2, r3, #255	; 0xff
     dd4:	e51b3014 	ldr	r3, [fp, #-20]
     dd8:	e2433001 	sub	r3, r3, #1	; 0x1
     ddc:	e50b3014 	str	r3, [fp, #-20]
     de0:	e3520000 	cmp	r2, #0	; 0x0
     de4:	1affffea 	bne	d94 <delay1ms+0x18>
     de8:	e24bd00c 	sub	sp, fp, #12	; 0xc
     dec:	e89da800 	ldm	sp, {fp, sp, pc}

00000df0 <getTaste>:
     df0:	e1a0c00d 	mov	ip, sp
     df4:	e92dd800 	push	{fp, ip, lr, pc}
     df8:	e24cb004 	sub	fp, ip, #4	; 0x4
     dfc:	e24dd014 	sub	sp, sp, #20	; 0x14
     e00:	e3a0320a 	mov	r3, #-1610612736	; 0xa0000000
     e04:	e1a039c3 	asr	r3, r3, #19
     e08:	e593303c 	ldr	r3, [r3, #60]
     e0c:	e50b3010 	str	r3, [fp, #-16]
     e10:	e51b3010 	ldr	r3, [fp, #-16]
     e14:	e2033002 	and	r3, r3, #2	; 0x2
     e18:	e3530000 	cmp	r3, #0	; 0x0
     e1c:	13a01000 	movne	r1, #0	; 0x0
     e20:	03a01001 	moveq	r1, #1	; 0x1
     e24:	e50b1020 	str	r1, [fp, #-32]
     e28:	e51b3010 	ldr	r3, [fp, #-16]
     e2c:	e2033001 	and	r3, r3, #1	; 0x1
     e30:	e3530000 	cmp	r3, #0	; 0x0
     e34:	1a000002 	bne	e44 <getTaste+0x54>
     e38:	e3a02002 	mov	r2, #2	; 0x2
     e3c:	e50b201c 	str	r2, [fp, #-28]
     e40:	ea000001 	b	e4c <getTaste+0x5c>
     e44:	e3a03000 	mov	r3, #0	; 0x0
     e48:	e50b301c 	str	r3, [fp, #-28]
     e4c:	e51b1020 	ldr	r1, [fp, #-32]
     e50:	e51b201c 	ldr	r2, [fp, #-28]
     e54:	e1811002 	orr	r1, r1, r2
     e58:	e50b1018 	str	r1, [fp, #-24]
     e5c:	e51b3010 	ldr	r3, [fp, #-16]
     e60:	e3530000 	cmp	r3, #0	; 0x0
     e64:	ba000002 	blt	e74 <getTaste+0x84>
     e68:	e3a03004 	mov	r3, #4	; 0x4
     e6c:	e50b3014 	str	r3, [fp, #-20]
     e70:	ea000001 	b	e7c <getTaste+0x8c>
     e74:	e3a01000 	mov	r1, #0	; 0x0
     e78:	e50b1014 	str	r1, [fp, #-20]
     e7c:	e51b2018 	ldr	r2, [fp, #-24]
     e80:	e51b1014 	ldr	r1, [fp, #-20]
     e84:	e1823001 	orr	r3, r2, r1
     e88:	e1a00003 	mov	r0, r3
     e8c:	e24bd00c 	sub	sp, fp, #12	; 0xc
     e90:	e89da800 	ldm	sp, {fp, sp, pc}

00000e94 <memcpy>:
     e94:	e92d0070 	push	{r4, r5, r6}
     e98:	e352000f 	cmp	r2, #15	; 0xf
     e9c:	e1a04002 	mov	r4, r2
     ea0:	e1a05001 	mov	r5, r1
     ea4:	e1a02001 	mov	r2, r1
     ea8:	e1a06000 	mov	r6, r0
     eac:	e1a01004 	mov	r1, r4
     eb0:	9a000002 	bls	ec0 <memcpy+0x2c>
     eb4:	e1853006 	orr	r3, r5, r6
     eb8:	e3130003 	tst	r3, #3	; 0x3
     ebc:	0a00000a 	beq	eec <memcpy+0x58>
     ec0:	e3510000 	cmp	r1, #0	; 0x0
     ec4:	0a000005 	beq	ee0 <memcpy+0x4c>
     ec8:	e3a0c000 	mov	ip, #0	; 0x0
     ecc:	e7d2300c 	ldrb	r3, [r2, ip]
     ed0:	e7c0300c 	strb	r3, [r0, ip]
     ed4:	e28cc001 	add	ip, ip, #1	; 0x1
     ed8:	e15c0001 	cmp	ip, r1
     edc:	1afffffa 	bne	ecc <memcpy+0x38>
     ee0:	e1a00006 	mov	r0, r6
     ee4:	e8bd0070 	pop	{r4, r5, r6}
     ee8:	e12fff1e 	bx	lr
     eec:	e1a01006 	mov	r1, r6
     ef0:	e1a0c005 	mov	ip, r5
     ef4:	e1a00004 	mov	r0, r4
     ef8:	e59c3000 	ldr	r3, [ip]
     efc:	e5813000 	str	r3, [r1]
     f00:	e59c2004 	ldr	r2, [ip, #4]
     f04:	e5812004 	str	r2, [r1, #4]
     f08:	e59c3008 	ldr	r3, [ip, #8]
     f0c:	e5813008 	str	r3, [r1, #8]
     f10:	e2400010 	sub	r0, r0, #16	; 0x10
     f14:	e59c300c 	ldr	r3, [ip, #12]
     f18:	e350000f 	cmp	r0, #15	; 0xf
     f1c:	e581300c 	str	r3, [r1, #12]
     f20:	e28cc010 	add	ip, ip, #16	; 0x10
     f24:	e2811010 	add	r1, r1, #16	; 0x10
     f28:	8afffff2 	bhi	ef8 <memcpy+0x64>
     f2c:	e2442010 	sub	r2, r4, #16	; 0x10
     f30:	e1a03222 	lsr	r3, r2, #4
     f34:	e0421203 	sub	r1, r2, r3, lsl #4
     f38:	e2833001 	add	r3, r3, #1	; 0x1
     f3c:	e1a03203 	lsl	r3, r3, #4
     f40:	e3510003 	cmp	r1, #3	; 0x3
     f44:	e0854003 	add	r4, r5, r3
     f48:	e0860003 	add	r0, r6, r3
     f4c:	9a00000d 	bls	f88 <memcpy+0xf4>
     f50:	e3a0c000 	mov	ip, #0	; 0x0
     f54:	e794300c 	ldr	r3, [r4, ip]
     f58:	e780300c 	str	r3, [r0, ip]
     f5c:	e28cc004 	add	ip, ip, #4	; 0x4
     f60:	e06c3001 	rsb	r3, ip, r1
     f64:	e3530003 	cmp	r3, #3	; 0x3
     f68:	8afffff9 	bhi	f54 <memcpy+0xc0>
     f6c:	e2411004 	sub	r1, r1, #4	; 0x4
     f70:	e1a02121 	lsr	r2, r1, #2
     f74:	e2823001 	add	r3, r2, #1	; 0x1
     f78:	e1a03103 	lsl	r3, r3, #2
     f7c:	e0800003 	add	r0, r0, r3
     f80:	e0411102 	sub	r1, r1, r2, lsl #2
     f84:	e0844003 	add	r4, r4, r3
     f88:	e1a02004 	mov	r2, r4
     f8c:	eaffffcb 	b	ec0 <memcpy+0x2c>

00000f90 <sprintf>:
     f90:	e92d000e 	push	{r1, r2, r3}
     f94:	e92d4010 	push	{r4, lr}
     f98:	e59f3058 	ldr	r3, [pc, #88]	; ff8 <sprintf+0x68>
     f9c:	e24dd05c 	sub	sp, sp, #92	; 0x5c
     fa0:	e3e0c102 	mvn	ip, #-2147483648	; 0x80000000
     fa4:	e1a0e000 	mov	lr, r0
     fa8:	e59d2064 	ldr	r2, [sp, #100]
     fac:	e58dc014 	str	ip, [sp, #20]
     fb0:	e58dc008 	str	ip, [sp, #8]
     fb4:	e5930000 	ldr	r0, [r3]
     fb8:	e3e0c000 	mvn	ip, #0	; 0x0
     fbc:	e28d3068 	add	r3, sp, #104	; 0x68
     fc0:	e1a0100d 	mov	r1, sp
     fc4:	e3a04f82 	mov	r4, #520	; 0x208
     fc8:	e58de010 	str	lr, [sp, #16]
     fcc:	e1cd40bc 	strh	r4, [sp, #12]
     fd0:	e58de000 	str	lr, [sp]
     fd4:	e1cdc0be 	strh	ip, [sp, #14]
     fd8:	eb00002b 	bl	108c <_vfprintf_r>
     fdc:	e59d3000 	ldr	r3, [sp]
     fe0:	e3a02000 	mov	r2, #0	; 0x0
     fe4:	e5c32000 	strb	r2, [r3]
     fe8:	e28dd05c 	add	sp, sp, #92	; 0x5c
     fec:	e8bd4010 	pop	{r4, lr}
     ff0:	e28dd00c 	add	sp, sp, #12	; 0xc
     ff4:	e12fff1e 	bx	lr
     ff8:	00200000 	.word	0x00200000

00000ffc <_sprintf_r>:
     ffc:	e92d000c 	push	{r2, r3}
    1000:	e92d4010 	push	{r4, lr}
    1004:	e1a0c001 	mov	ip, r1
    1008:	e24dd05c 	sub	sp, sp, #92	; 0x5c
    100c:	e3e0e102 	mvn	lr, #-2147483648	; 0x80000000
    1010:	e59d2064 	ldr	r2, [sp, #100]
    1014:	e28d3068 	add	r3, sp, #104	; 0x68
    1018:	e58dc010 	str	ip, [sp, #16]
    101c:	e58dc000 	str	ip, [sp]
    1020:	e1a0100d 	mov	r1, sp
    1024:	e3e0c000 	mvn	ip, #0	; 0x0
    1028:	e3a04f82 	mov	r4, #520	; 0x208
    102c:	e58de014 	str	lr, [sp, #20]
    1030:	e1cd40bc 	strh	r4, [sp, #12]
    1034:	e58de008 	str	lr, [sp, #8]
    1038:	e1cdc0be 	strh	ip, [sp, #14]
    103c:	eb000012 	bl	108c <_vfprintf_r>
    1040:	e59d3000 	ldr	r3, [sp]
    1044:	e3a02000 	mov	r2, #0	; 0x0
    1048:	e5c32000 	strb	r2, [r3]
    104c:	e28dd05c 	add	sp, sp, #92	; 0x5c
    1050:	e8bd4010 	pop	{r4, lr}
    1054:	e28dd008 	add	sp, sp, #8	; 0x8
    1058:	e12fff1e 	bx	lr

0000105c <__sprint_r>:
    105c:	e5923008 	ldr	r3, [r2, #8]
    1060:	e3530000 	cmp	r3, #0	; 0x0
    1064:	e92d4010 	push	{r4, lr}
    1068:	05823004 	streq	r3, [r2, #4]
    106c:	e1a04002 	mov	r4, r2
    1070:	01a00003 	moveq	r0, r3
    1074:	08bd8010 	popeq	{r4, pc}
    1078:	eb000f76 	bl	4e58 <__sfvwrite_r>
    107c:	e3a03000 	mov	r3, #0	; 0x0
    1080:	e5843004 	str	r3, [r4, #4]
    1084:	e5843008 	str	r3, [r4, #8]
    1088:	e8bd8010 	pop	{r4, pc}

0000108c <_vfprintf_r>:
    108c:	e92d4ff0 	push	{r4, r5, r6, r7, r8, r9, sl, fp, lr}
    1090:	e24ddd15 	sub	sp, sp, #1344	; 0x540
    1094:	e24dd00c 	sub	sp, sp, #12	; 0xc
    1098:	e58d1018 	str	r1, [sp, #24]
    109c:	e1a04002 	mov	r4, r2
    10a0:	e1a0a003 	mov	sl, r3
    10a4:	e58d001c 	str	r0, [sp, #28]
    10a8:	eb0010cc 	bl	53e0 <_localeconv_r>
    10ac:	e59d101c 	ldr	r1, [sp, #28]
    10b0:	e5900000 	ldr	r0, [r0]
    10b4:	e3510000 	cmp	r1, #0	; 0x0
    10b8:	e58d003c 	str	r0, [sp, #60]
    10bc:	0a000002 	beq	10cc <_vfprintf_r+0x40>
    10c0:	e5913038 	ldr	r3, [r1, #56]
    10c4:	e3530000 	cmp	r3, #0	; 0x0
    10c8:	0a000183 	beq	16dc <_vfprintf_r+0x650>
    10cc:	e59d2018 	ldr	r2, [sp, #24]
    10d0:	e1d2c0bc 	ldrh	ip, [r2, #12]
    10d4:	e1a0380c 	lsl	r3, ip, #16
    10d8:	e1a02823 	lsr	r2, r3, #16
    10dc:	e3120008 	tst	r2, #8	; 0x8
    10e0:	0a0004f7 	beq	24c4 <_vfprintf_r+0x1438>
    10e4:	e59d5018 	ldr	r5, [sp, #24]
    10e8:	e5953010 	ldr	r3, [r5, #16]
    10ec:	e3530000 	cmp	r3, #0	; 0x0
    10f0:	0a0004f3 	beq	24c4 <_vfprintf_r+0x1438>
    10f4:	e202301a 	and	r3, r2, #26	; 0x1a
    10f8:	e353000a 	cmp	r3, #10	; 0xa
    10fc:	0a000147 	beq	1620 <_vfprintf_r+0x594>
    1100:	e28d8e4b 	add	r8, sp, #1200	; 0x4b0
    1104:	e3a03000 	mov	r3, #0	; 0x0
    1108:	e2888008 	add	r8, r8, #8	; 0x8
    110c:	e58d3034 	str	r3, [sp, #52]
    1110:	e58d8520 	str	r8, [sp, #1312]
    1114:	e58d3528 	str	r3, [sp, #1320]
    1118:	e58d3524 	str	r3, [sp, #1316]
    111c:	e58d4028 	str	r4, [sp, #40]
    1120:	e58d3014 	str	r3, [sp, #20]
    1124:	e58d3010 	str	r3, [sp, #16]
    1128:	e58d3044 	str	r3, [sp, #68]
    112c:	e58d3054 	str	r3, [sp, #84]
    1130:	e58d3048 	str	r3, [sp, #72]
    1134:	e59d1028 	ldr	r1, [sp, #40]
    1138:	e5d13000 	ldrb	r3, [r1]
    113c:	e3530000 	cmp	r3, #0	; 0x0
    1140:	13530025 	cmpne	r3, #37	; 0x25
    1144:	0a000019 	beq	11b0 <_vfprintf_r+0x124>
    1148:	e1a04001 	mov	r4, r1
    114c:	e5f43001 	ldrb	r3, [r4, #1]!
    1150:	e3530000 	cmp	r3, #0	; 0x0
    1154:	13530025 	cmpne	r3, #37	; 0x25
    1158:	1afffffb 	bne	114c <_vfprintf_r+0xc0>
    115c:	e59d2028 	ldr	r2, [sp, #40]
    1160:	e0547002 	subs	r7, r4, r2
    1164:	058d4028 	streq	r4, [sp, #40]
    1168:	0a000010 	beq	11b0 <_vfprintf_r+0x124>
    116c:	e59d5524 	ldr	r5, [sp, #1316]
    1170:	e59d6528 	ldr	r6, [sp, #1320]
    1174:	e2852001 	add	r2, r5, #1	; 0x1
    1178:	e59d5028 	ldr	r5, [sp, #40]
    117c:	e0863007 	add	r3, r6, r7
    1180:	e3520007 	cmp	r2, #7	; 0x7
    1184:	e5885000 	str	r5, [r8]
    1188:	e58d3528 	str	r3, [sp, #1320]
    118c:	e5887004 	str	r7, [r8, #4]
    1190:	e58d2524 	str	r2, [sp, #1316]
    1194:	ca00010a 	bgt	15c4 <_vfprintf_r+0x538>
    1198:	e59dc034 	ldr	ip, [sp, #52]
    119c:	e58d4028 	str	r4, [sp, #40]
    11a0:	e08cc007 	add	ip, ip, r7
    11a4:	e5d43000 	ldrb	r3, [r4]
    11a8:	e58dc034 	str	ip, [sp, #52]
    11ac:	e2888008 	add	r8, r8, #8	; 0x8
    11b0:	e3530000 	cmp	r3, #0	; 0x0
    11b4:	0a00010a 	beq	15e4 <_vfprintf_r+0x558>
    11b8:	e3a0b000 	mov	fp, #0	; 0x0
    11bc:	e59d2028 	ldr	r2, [sp, #40]
    11c0:	e3a03000 	mov	r3, #0	; 0x0
    11c4:	e5cd354b 	strb	r3, [sp, #1355]
    11c8:	e58da058 	str	sl, [sp, #88]
    11cc:	e58db038 	str	fp, [sp, #56]
    11d0:	e2821001 	add	r1, r2, #1	; 0x1
    11d4:	e3e05000 	mvn	r5, #0	; 0x0
    11d8:	e3a0e02b 	mov	lr, #43	; 0x2b
    11dc:	e3a04020 	mov	r4, #32	; 0x20
    11e0:	e4d1c001 	ldrb	ip, [r1], #1
    11e4:	e58d1028 	str	r1, [sp, #40]
    11e8:	e58dc02c 	str	ip, [sp, #44]
    11ec:	e59d102c 	ldr	r1, [sp, #44]
    11f0:	e2413020 	sub	r3, r1, #32	; 0x20
    11f4:	e3530058 	cmp	r3, #88	; 0x58
    11f8:	979ff103 	ldrls	pc, [pc, r3, lsl #2]
    11fc:	ea000199 	b	1868 <_vfprintf_r+0x7dc>
    1200:	0000173c 	.word	0x0000173c
    1204:	00001868 	.word	0x00001868
    1208:	00001868 	.word	0x00001868
    120c:	00001760 	.word	0x00001760
    1210:	00001868 	.word	0x00001868
    1214:	00001868 	.word	0x00001868
    1218:	00001868 	.word	0x00001868
    121c:	00001868 	.word	0x00001868
    1220:	00001868 	.word	0x00001868
    1224:	00001868 	.word	0x00001868
    1228:	0000179c 	.word	0x0000179c
    122c:	00001774 	.word	0x00001774
    1230:	00001868 	.word	0x00001868
    1234:	00001788 	.word	0x00001788
    1238:	000017c4 	.word	0x000017c4
    123c:	00001868 	.word	0x00001868
    1240:	0000182c 	.word	0x0000182c
    1244:	00001c5c 	.word	0x00001c5c
    1248:	00001c5c 	.word	0x00001c5c
    124c:	00001c5c 	.word	0x00001c5c
    1250:	00001c5c 	.word	0x00001c5c
    1254:	00001c5c 	.word	0x00001c5c
    1258:	00001c5c 	.word	0x00001c5c
    125c:	00001c5c 	.word	0x00001c5c
    1260:	00001c5c 	.word	0x00001c5c
    1264:	00001c5c 	.word	0x00001c5c
    1268:	00001868 	.word	0x00001868
    126c:	00001868 	.word	0x00001868
    1270:	00001868 	.word	0x00001868
    1274:	00001868 	.word	0x00001868
    1278:	00001868 	.word	0x00001868
    127c:	00001868 	.word	0x00001868
    1280:	00001868 	.word	0x00001868
    1284:	00001868 	.word	0x00001868
    1288:	00001868 	.word	0x00001868
    128c:	00001868 	.word	0x00001868
    1290:	00001398 	.word	0x00001398
    1294:	00001cd8 	.word	0x00001cd8
    1298:	00001868 	.word	0x00001868
    129c:	00001cd8 	.word	0x00001cd8
    12a0:	00001868 	.word	0x00001868
    12a4:	00001868 	.word	0x00001868
    12a8:	00001868 	.word	0x00001868
    12ac:	00001868 	.word	0x00001868
    12b0:	00001840 	.word	0x00001840
    12b4:	00001868 	.word	0x00001868
    12b8:	00001868 	.word	0x00001868
    12bc:	00001378 	.word	0x00001378
    12c0:	00001868 	.word	0x00001868
    12c4:	00001868 	.word	0x00001868
    12c8:	00001868 	.word	0x00001868
    12cc:	00001868 	.word	0x00001868
    12d0:	00001868 	.word	0x00001868
    12d4:	00001434 	.word	0x00001434
    12d8:	00001868 	.word	0x00001868
    12dc:	00001868 	.word	0x00001868
    12e0:	00001b94 	.word	0x00001b94
    12e4:	00001868 	.word	0x00001868
    12e8:	00001868 	.word	0x00001868
    12ec:	00001868 	.word	0x00001868
    12f0:	00001868 	.word	0x00001868
    12f4:	00001868 	.word	0x00001868
    12f8:	00001868 	.word	0x00001868
    12fc:	00001868 	.word	0x00001868
    1300:	00001868 	.word	0x00001868
    1304:	00001868 	.word	0x00001868
    1308:	00001868 	.word	0x00001868
    130c:	00001d70 	.word	0x00001d70
    1310:	0000139c 	.word	0x0000139c
    1314:	00001cd8 	.word	0x00001cd8
    1318:	00001cd8 	.word	0x00001cd8
    131c:	00001cd8 	.word	0x00001cd8
    1320:	00001854 	.word	0x00001854
    1324:	0000139c 	.word	0x0000139c
    1328:	00001868 	.word	0x00001868
    132c:	00001868 	.word	0x00001868
    1330:	00001364 	.word	0x00001364
    1334:	00001868 	.word	0x00001868
    1338:	00001b34 	.word	0x00001b34
    133c:	0000137c 	.word	0x0000137c
    1340:	00001b5c 	.word	0x00001b5c
    1344:	00001364 	.word	0x00001364
    1348:	00001868 	.word	0x00001868
    134c:	00001be0 	.word	0x00001be0
    1350:	00001868 	.word	0x00001868
    1354:	00001438 	.word	0x00001438
    1358:	00001868 	.word	0x00001868
    135c:	00001868 	.word	0x00001868
    1360:	00001ca0 	.word	0x00001ca0
    1364:	e59d3058 	ldr	r3, [sp, #88]
    1368:	e38bb010 	orr	fp, fp, #16	; 0x10
    136c:	e59d1028 	ldr	r1, [sp, #40]
    1370:	e58d3058 	str	r3, [sp, #88]
    1374:	eaffff99 	b	11e0 <_vfprintf_r+0x154>
    1378:	e38bb010 	orr	fp, fp, #16	; 0x10
    137c:	e21b2010 	ands	r2, fp, #16	; 0x10
    1380:	0a0000e1 	beq	170c <_vfprintf_r+0x680>
    1384:	e59d2058 	ldr	r2, [sp, #88]
    1388:	e3a03000 	mov	r3, #0	; 0x0
    138c:	e592c000 	ldr	ip, [r2]
    1390:	e2826004 	add	r6, r2, #4	; 0x4
    1394:	ea000032 	b	1464 <_vfprintf_r+0x3d8>
    1398:	e38bb010 	orr	fp, fp, #16	; 0x10
    139c:	e31b0010 	tst	fp, #16	; 0x10
    13a0:	1a0000d5 	bne	16fc <_vfprintf_r+0x670>
    13a4:	e31b0040 	tst	fp, #64	; 0x40
    13a8:	159d2058 	ldrne	r2, [sp, #88]
    13ac:	059d3058 	ldreq	r3, [sp, #88]
    13b0:	15923000 	ldrne	r3, [r2]
    13b4:	0593c000 	ldreq	ip, [r3]
    13b8:	11a03803 	lslne	r3, r3, #16
    13bc:	11a0c843 	asrne	ip, r3, #16
    13c0:	12826004 	addne	r6, r2, #4	; 0x4
    13c4:	02836004 	addeq	r6, r3, #4	; 0x4
    13c8:	e35c0000 	cmp	ip, #0	; 0x0
    13cc:	b3a0302d 	movlt	r3, #45	; 0x2d
    13d0:	b5cd354b 	strblt	r3, [sp, #1355]
    13d4:	a3a03001 	movge	r3, #1	; 0x1
    13d8:	b26cc000 	rsblt	ip, ip, #0	; 0x0
    13dc:	b243302c 	sublt	r3, r3, #44	; 0x2c
    13e0:	e3550000 	cmp	r5, #0	; 0x0
    13e4:	aa000022 	bge	1474 <_vfprintf_r+0x3e8>
    13e8:	e28d0e52 	add	r0, sp, #1312	; 0x520
    13ec:	e3530001 	cmp	r3, #1	; 0x1
    13f0:	0a00041d 	beq	246c <_vfprintf_r+0x13e0>
    13f4:	358d0030 	strcc	r0, [sp, #48]
    13f8:	3a0002fe 	bcc	1ff8 <_vfprintf_r+0xf6c>
    13fc:	e3530002 	cmp	r3, #2	; 0x2
    1400:	0a00040e 	beq	2440 <_vfprintf_r+0x13b4>
    1404:	e59f0f7c 	ldr	r0, [pc, #3964]	; 2388 <_vfprintf_r+0x12fc>
    1408:	eb001845 	bl	7524 <strlen>
    140c:	e59f1f74 	ldr	r1, [pc, #3956]	; 2388 <_vfprintf_r+0x12fc>
    1410:	e1500005 	cmp	r0, r5
    1414:	a1a0c000 	movge	ip, r0
    1418:	b1a0c005 	movlt	ip, r5
    141c:	e1a09000 	mov	r9, r0
    1420:	e58dc050 	str	ip, [sp, #80]
    1424:	e58d6058 	str	r6, [sp, #88]
    1428:	e58d504c 	str	r5, [sp, #76]
    142c:	e58d1030 	str	r1, [sp, #48]
    1430:	ea000026 	b	14d0 <_vfprintf_r+0x444>
    1434:	e38bb010 	orr	fp, fp, #16	; 0x10
    1438:	e31b0010 	tst	fp, #16	; 0x10
    143c:	1a0000a9 	bne	16e8 <_vfprintf_r+0x65c>
    1440:	e31b0040 	tst	fp, #64	; 0x40
    1444:	0a000475 	beq	2620 <_vfprintf_r+0x1594>
    1448:	e59dc058 	ldr	ip, [sp, #88]
    144c:	e59c3000 	ldr	r3, [ip]
    1450:	e59d1058 	ldr	r1, [sp, #88]
    1454:	e1a03803 	lsl	r3, r3, #16
    1458:	e1a0c823 	lsr	ip, r3, #16
    145c:	e2816004 	add	r6, r1, #4	; 0x4
    1460:	e3a03001 	mov	r3, #1	; 0x1
    1464:	e3a02000 	mov	r2, #0	; 0x0
    1468:	e3550000 	cmp	r5, #0	; 0x0
    146c:	e5cd254b 	strb	r2, [sp, #1355]
    1470:	baffffdc 	blt	13e8 <_vfprintf_r+0x35c>
    1474:	e3550000 	cmp	r5, #0	; 0x0
    1478:	035c0000 	cmpeq	ip, #0	; 0x0
    147c:	e3cbb080 	bic	fp, fp, #128	; 0x80
    1480:	e28d0e52 	add	r0, sp, #1312	; 0x520
    1484:	1affffd8 	bne	13ec <_vfprintf_r+0x360>
    1488:	e3530000 	cmp	r3, #0	; 0x0
    148c:	1a000007 	bne	14b0 <_vfprintf_r+0x424>
    1490:	e31b0001 	tst	fp, #1	; 0x1
    1494:	128d2e51 	addne	r2, sp, #1296	; 0x510
    1498:	12833030 	addne	r3, r3, #48	; 0x30
    149c:	1282200f 	addne	r2, r2, #15	; 0xf
    14a0:	15cd351f 	strbne	r3, [sp, #1311]
    14a4:	158d2030 	strne	r2, [sp, #48]
    14a8:	13a09001 	movne	r9, #1	; 0x1
    14ac:	1a000001 	bne	14b8 <_vfprintf_r+0x42c>
    14b0:	e58d0030 	str	r0, [sp, #48]
    14b4:	e3a09000 	mov	r9, #0	; 0x0
    14b8:	e1590005 	cmp	r9, r5
    14bc:	a1a03009 	movge	r3, r9
    14c0:	b1a03005 	movlt	r3, r5
    14c4:	e58d3050 	str	r3, [sp, #80]
    14c8:	e58d6058 	str	r6, [sp, #88]
    14cc:	e58d504c 	str	r5, [sp, #76]
    14d0:	e5dd354b 	ldrb	r3, [sp, #1355]
    14d4:	e3530000 	cmp	r3, #0	; 0x0
    14d8:	0a000002 	beq	14e8 <_vfprintf_r+0x45c>
    14dc:	e59d5050 	ldr	r5, [sp, #80]
    14e0:	e2855001 	add	r5, r5, #1	; 0x1
    14e4:	e58d5050 	str	r5, [sp, #80]
    14e8:	e21bc002 	ands	ip, fp, #2	; 0x2
    14ec:	159d1050 	ldrne	r1, [sp, #80]
    14f0:	12811002 	addne	r1, r1, #2	; 0x2
    14f4:	158d1050 	strne	r1, [sp, #80]
    14f8:	e21b2084 	ands	r2, fp, #132	; 0x84
    14fc:	e58dc020 	str	ip, [sp, #32]
    1500:	e58d2024 	str	r2, [sp, #36]
    1504:	1a0000ec 	bne	18bc <_vfprintf_r+0x830>
    1508:	e59d3038 	ldr	r3, [sp, #56]
    150c:	e59d5050 	ldr	r5, [sp, #80]
    1510:	e0654003 	rsb	r4, r5, r3
    1514:	e3540000 	cmp	r4, #0	; 0x0
    1518:	da0000e7 	ble	18bc <_vfprintf_r+0x830>
    151c:	e3540010 	cmp	r4, #16	; 0x10
    1520:	da000592 	ble	2b70 <_vfprintf_r+0x1ae4>
    1524:	e59d6528 	ldr	r6, [sp, #1320]
    1528:	e59d5524 	ldr	r5, [sp, #1316]
    152c:	e59f7e7c 	ldr	r7, [pc, #3708]	; 23b0 <_vfprintf_r+0x1324>
    1530:	e28dae52 	add	sl, sp, #1312	; 0x520
    1534:	ea000002 	b	1544 <_vfprintf_r+0x4b8>
    1538:	e2444010 	sub	r4, r4, #16	; 0x10
    153c:	e3540010 	cmp	r4, #16	; 0x10
    1540:	da000015 	ble	159c <_vfprintf_r+0x510>
    1544:	e2855001 	add	r5, r5, #1	; 0x1
    1548:	e3550007 	cmp	r5, #7	; 0x7
    154c:	e2866010 	add	r6, r6, #16	; 0x10
    1550:	e3a0c010 	mov	ip, #16	; 0x10
    1554:	e8881080 	stm	r8, {r7, ip}
    1558:	e58d6528 	str	r6, [sp, #1320]
    155c:	e58d5524 	str	r5, [sp, #1316]
    1560:	d2888008 	addle	r8, r8, #8	; 0x8
    1564:	dafffff3 	ble	1538 <_vfprintf_r+0x4ac>
    1568:	e59d001c 	ldr	r0, [sp, #28]
    156c:	e59d1018 	ldr	r1, [sp, #24]
    1570:	e1a0200a 	mov	r2, sl
    1574:	ebfffeb8 	bl	105c <__sprint_r>
    1578:	e28d8e4b 	add	r8, sp, #1200	; 0x4b0
    157c:	e3500000 	cmp	r0, #0	; 0x0
    1580:	e2888008 	add	r8, r8, #8	; 0x8
    1584:	1a00001b 	bne	15f8 <_vfprintf_r+0x56c>
    1588:	e2444010 	sub	r4, r4, #16	; 0x10
    158c:	e3540010 	cmp	r4, #16	; 0x10
    1590:	e59d6528 	ldr	r6, [sp, #1320]
    1594:	e59d5524 	ldr	r5, [sp, #1316]
    1598:	caffffe9 	bgt	1544 <_vfprintf_r+0x4b8>
    159c:	e2855001 	add	r5, r5, #1	; 0x1
    15a0:	e0866004 	add	r6, r6, r4
    15a4:	e3550007 	cmp	r5, #7	; 0x7
    15a8:	e5887000 	str	r7, [r8]
    15ac:	e5884004 	str	r4, [r8, #4]
    15b0:	e58d6528 	str	r6, [sp, #1320]
    15b4:	e58d5524 	str	r5, [sp, #1316]
    15b8:	ca0002d0 	bgt	2100 <_vfprintf_r+0x1074>
    15bc:	e2888008 	add	r8, r8, #8	; 0x8
    15c0:	ea0000bf 	b	18c4 <_vfprintf_r+0x838>
    15c4:	e59d001c 	ldr	r0, [sp, #28]
    15c8:	e59d1018 	ldr	r1, [sp, #24]
    15cc:	e28d2e52 	add	r2, sp, #1312	; 0x520
    15d0:	ebfffea1 	bl	105c <__sprint_r>
    15d4:	e3500000 	cmp	r0, #0	; 0x0
    15d8:	1a000006 	bne	15f8 <_vfprintf_r+0x56c>
    15dc:	e28d8e4b 	add	r8, sp, #1200	; 0x4b0
    15e0:	eafffeec 	b	1198 <_vfprintf_r+0x10c>
    15e4:	e59d3528 	ldr	r3, [sp, #1320]
    15e8:	e3530000 	cmp	r3, #0	; 0x0
    15ec:	1a00056d 	bne	2ba8 <_vfprintf_r+0x1b1c>
    15f0:	e3a03000 	mov	r3, #0	; 0x0
    15f4:	e58d3524 	str	r3, [sp, #1316]
    15f8:	e59d8018 	ldr	r8, [sp, #24]
    15fc:	e1d830bc 	ldrh	r3, [r8, #12]
    1600:	e3130040 	tst	r3, #64	; 0x40
    1604:	0a000001 	beq	1610 <_vfprintf_r+0x584>
    1608:	e3e0c000 	mvn	ip, #0	; 0x0
    160c:	e58dc034 	str	ip, [sp, #52]
    1610:	e59d0034 	ldr	r0, [sp, #52]
    1614:	e28ddf53 	add	sp, sp, #332	; 0x14c
    1618:	e28ddb01 	add	sp, sp, #1024	; 0x400
    161c:	e8bd8ff0 	pop	{r4, r5, r6, r7, r8, r9, sl, fp, pc}
    1620:	e59d1018 	ldr	r1, [sp, #24]
    1624:	e1d130fe 	ldrsh	r3, [r1, #14]
    1628:	e3530000 	cmp	r3, #0	; 0x0
    162c:	bafffeb3 	blt	1100 <_vfprintf_r+0x74>
    1630:	e1a02004 	mov	r2, r4
    1634:	e3a04b01 	mov	r4, #1024	; 0x400
    1638:	e3ccc002 	bic	ip, ip, #2	; 0x2
    163c:	e08d8004 	add	r8, sp, r4
    1640:	e1c8c6b8 	strh	ip, [r8, #104]
    1644:	e3a0c000 	mov	ip, #0	; 0x0
    1648:	e58dc474 	str	ip, [sp, #1140]
    164c:	e59dc018 	ldr	ip, [sp, #24]
    1650:	e28d7e45 	add	r7, sp, #1104	; 0x450
    1654:	e1dcc0be 	ldrh	ip, [ip, #14]
    1658:	e591501c 	ldr	r5, [r1, #28]
    165c:	e5916024 	ldr	r6, [r1, #36]
    1660:	e287700c 	add	r7, r7, #12	; 0xc
    1664:	e28de05c 	add	lr, sp, #92	; 0x5c
    1668:	e1a0300a 	mov	r3, sl
    166c:	e59d001c 	ldr	r0, [sp, #28]
    1670:	e1a01007 	mov	r1, r7
    1674:	e1c8c6ba 	strh	ip, [r8, #106]
    1678:	e58d5478 	str	r5, [sp, #1144]
    167c:	e58d6480 	str	r6, [sp, #1152]
    1680:	e58de46c 	str	lr, [sp, #1132]
    1684:	e58d4470 	str	r4, [sp, #1136]
    1688:	e58de45c 	str	lr, [sp, #1116]
    168c:	e58d4464 	str	r4, [sp, #1124]
    1690:	ebfffe7d 	bl	108c <_vfprintf_r>
    1694:	e3500000 	cmp	r0, #0	; 0x0
    1698:	e58d0034 	str	r0, [sp, #52]
    169c:	ba000006 	blt	16bc <_vfprintf_r+0x630>
    16a0:	e1a01007 	mov	r1, r7
    16a4:	e59d001c 	ldr	r0, [sp, #28]
    16a8:	eb000bec 	bl	4660 <_fflush_r>
    16ac:	e59d1034 	ldr	r1, [sp, #52]
    16b0:	e3500000 	cmp	r0, #0	; 0x0
    16b4:	13e01000 	mvnne	r1, #0	; 0x0
    16b8:	e58d1034 	str	r1, [sp, #52]
    16bc:	e28d2b01 	add	r2, sp, #1024	; 0x400
    16c0:	e1d236b8 	ldrh	r3, [r2, #104]
    16c4:	e3130040 	tst	r3, #64	; 0x40
    16c8:	159d5018 	ldrne	r5, [sp, #24]
    16cc:	11d530bc 	ldrhne	r3, [r5, #12]
    16d0:	13833040 	orrne	r3, r3, #64	; 0x40
    16d4:	11c530bc 	strhne	r3, [r5, #12]
    16d8:	eaffffcc 	b	1610 <_vfprintf_r+0x584>
    16dc:	e1a00001 	mov	r0, r1
    16e0:	eb000c55 	bl	483c <__sinit>
    16e4:	eafffe78 	b	10cc <_vfprintf_r+0x40>
    16e8:	e59d3058 	ldr	r3, [sp, #88]
    16ec:	e593c000 	ldr	ip, [r3]
    16f0:	e2836004 	add	r6, r3, #4	; 0x4
    16f4:	e3a03001 	mov	r3, #1	; 0x1
    16f8:	eaffff59 	b	1464 <_vfprintf_r+0x3d8>
    16fc:	e59d1058 	ldr	r1, [sp, #88]
    1700:	e591c000 	ldr	ip, [r1]
    1704:	e2816004 	add	r6, r1, #4	; 0x4
    1708:	eaffff2e 	b	13c8 <_vfprintf_r+0x33c>
    170c:	e21b3040 	ands	r3, fp, #64	; 0x40
    1710:	159dc058 	ldrne	ip, [sp, #88]
    1714:	159c3000 	ldrne	r3, [ip]
    1718:	059d2058 	ldreq	r2, [sp, #88]
    171c:	159d1058 	ldrne	r1, [sp, #88]
    1720:	11a03803 	lslne	r3, r3, #16
    1724:	11a0c823 	lsrne	ip, r3, #16
    1728:	12816004 	addne	r6, r1, #4	; 0x4
    172c:	11a03002 	movne	r3, r2
    1730:	0592c000 	ldreq	ip, [r2]
    1734:	02826004 	addeq	r6, r2, #4	; 0x4
    1738:	eaffff49 	b	1464 <_vfprintf_r+0x3d8>
    173c:	e5dd354b 	ldrb	r3, [sp, #1355]
    1740:	e3530000 	cmp	r3, #0	; 0x0
    1744:	159d3058 	ldrne	r3, [sp, #88]
    1748:	1a00001a 	bne	17b8 <_vfprintf_r+0x72c>
    174c:	e59d3058 	ldr	r3, [sp, #88]
    1750:	e5cd454b 	strb	r4, [sp, #1355]
    1754:	e59d1028 	ldr	r1, [sp, #40]
    1758:	e58d3058 	str	r3, [sp, #88]
    175c:	eafffe9f 	b	11e0 <_vfprintf_r+0x154>
    1760:	e59d3058 	ldr	r3, [sp, #88]
    1764:	e38bb001 	orr	fp, fp, #1	; 0x1
    1768:	e59d1028 	ldr	r1, [sp, #40]
    176c:	e58d3058 	str	r3, [sp, #88]
    1770:	eafffe9a 	b	11e0 <_vfprintf_r+0x154>
    1774:	e59d3058 	ldr	r3, [sp, #88]
    1778:	e5cde54b 	strb	lr, [sp, #1355]
    177c:	e59d1028 	ldr	r1, [sp, #40]
    1780:	e58d3058 	str	r3, [sp, #88]
    1784:	eafffe95 	b	11e0 <_vfprintf_r+0x154>
    1788:	e59d3058 	ldr	r3, [sp, #88]
    178c:	e38bb004 	orr	fp, fp, #4	; 0x4
    1790:	e59d1028 	ldr	r1, [sp, #40]
    1794:	e58d3058 	str	r3, [sp, #88]
    1798:	eafffe90 	b	11e0 <_vfprintf_r+0x154>
    179c:	e59d3058 	ldr	r3, [sp, #88]
    17a0:	e5933000 	ldr	r3, [r3]
    17a4:	e59dc058 	ldr	ip, [sp, #88]
    17a8:	e3530000 	cmp	r3, #0	; 0x0
    17ac:	e58d3038 	str	r3, [sp, #56]
    17b0:	e28c3004 	add	r3, ip, #4	; 0x4
    17b4:	ba000499 	blt	2a20 <_vfprintf_r+0x1994>
    17b8:	e59d1028 	ldr	r1, [sp, #40]
    17bc:	e58d3058 	str	r3, [sp, #88]
    17c0:	eafffe86 	b	11e0 <_vfprintf_r+0x154>
    17c4:	e59d1028 	ldr	r1, [sp, #40]
    17c8:	e4d12001 	ldrb	r2, [r1], #1
    17cc:	e352002a 	cmp	r2, #42	; 0x2a
    17d0:	e58d202c 	str	r2, [sp, #44]
    17d4:	0a000577 	beq	2db8 <_vfprintf_r+0x1d2c>
    17d8:	e2420030 	sub	r0, r2, #48	; 0x30
    17dc:	e3500009 	cmp	r0, #9	; 0x9
    17e0:	83a05000 	movhi	r5, #0	; 0x0
    17e4:	8a00000e 	bhi	1824 <_vfprintf_r+0x798>
    17e8:	e59d5028 	ldr	r5, [sp, #40]
    17ec:	e3a03000 	mov	r3, #0	; 0x0
    17f0:	e285c002 	add	ip, r5, #2	; 0x2
    17f4:	e55c1001 	ldrb	r1, [ip, #-1]
    17f8:	e1a02183 	lsl	r2, r3, #3
    17fc:	e1a03083 	lsl	r3, r3, #1
    1800:	e0833002 	add	r3, r3, r2
    1804:	e0833000 	add	r3, r3, r0
    1808:	e2410030 	sub	r0, r1, #48	; 0x30
    180c:	e3500009 	cmp	r0, #9	; 0x9
    1810:	e58d102c 	str	r1, [sp, #44]
    1814:	e1a0100c 	mov	r1, ip
    1818:	e28cc001 	add	ip, ip, #1	; 0x1
    181c:	9afffff4 	bls	17f4 <_vfprintf_r+0x768>
    1820:	e1835fc3 	orr	r5, r3, r3, asr #31
    1824:	e58d1028 	str	r1, [sp, #40]
    1828:	eafffe6f 	b	11ec <_vfprintf_r+0x160>
    182c:	e59d3058 	ldr	r3, [sp, #88]
    1830:	e38bb080 	orr	fp, fp, #128	; 0x80
    1834:	e59d1028 	ldr	r1, [sp, #40]
    1838:	e58d3058 	str	r3, [sp, #88]
    183c:	eafffe67 	b	11e0 <_vfprintf_r+0x154>
    1840:	e59d3058 	ldr	r3, [sp, #88]
    1844:	e38bb008 	orr	fp, fp, #8	; 0x8
    1848:	e59d1028 	ldr	r1, [sp, #40]
    184c:	e58d3058 	str	r3, [sp, #88]
    1850:	eafffe62 	b	11e0 <_vfprintf_r+0x154>
    1854:	e59d3058 	ldr	r3, [sp, #88]
    1858:	e38bb040 	orr	fp, fp, #64	; 0x40
    185c:	e59d1028 	ldr	r1, [sp, #40]
    1860:	e58d3058 	str	r3, [sp, #88]
    1864:	eafffe5d 	b	11e0 <_vfprintf_r+0x154>
    1868:	e59d502c 	ldr	r5, [sp, #44]
    186c:	e3550000 	cmp	r5, #0	; 0x0
    1870:	0affff5b 	beq	15e4 <_vfprintf_r+0x558>
    1874:	e28d1e4f 	add	r1, sp, #1264	; 0x4f0
    1878:	e3a09001 	mov	r9, #1	; 0x1
    187c:	e3a0c000 	mov	ip, #0	; 0x0
    1880:	e2811008 	add	r1, r1, #8	; 0x8
    1884:	e5cd54f8 	strb	r5, [sp, #1272]
    1888:	e5cdc54b 	strb	ip, [sp, #1355]
    188c:	e58d1030 	str	r1, [sp, #48]
    1890:	e58d9050 	str	r9, [sp, #80]
    1894:	e21bc002 	ands	ip, fp, #2	; 0x2
    1898:	159d1050 	ldrne	r1, [sp, #80]
    189c:	e3a02000 	mov	r2, #0	; 0x0
    18a0:	12811002 	addne	r1, r1, #2	; 0x2
    18a4:	e58d204c 	str	r2, [sp, #76]
    18a8:	158d1050 	strne	r1, [sp, #80]
    18ac:	e21b2084 	ands	r2, fp, #132	; 0x84
    18b0:	e58dc020 	str	ip, [sp, #32]
    18b4:	e58d2024 	str	r2, [sp, #36]
    18b8:	0affff12 	beq	1508 <_vfprintf_r+0x47c>
    18bc:	e59d6528 	ldr	r6, [sp, #1320]
    18c0:	e59d5524 	ldr	r5, [sp, #1316]
    18c4:	e5dd354b 	ldrb	r3, [sp, #1355]
    18c8:	e3530000 	cmp	r3, #0	; 0x0
    18cc:	0a00000b 	beq	1900 <_vfprintf_r+0x874>
    18d0:	e2855001 	add	r5, r5, #1	; 0x1
    18d4:	e28d3d15 	add	r3, sp, #1344	; 0x540
    18d8:	e2866001 	add	r6, r6, #1	; 0x1
    18dc:	e283300b 	add	r3, r3, #11	; 0xb
    18e0:	e3a01001 	mov	r1, #1	; 0x1
    18e4:	e3550007 	cmp	r5, #7	; 0x7
    18e8:	e5883000 	str	r3, [r8]
    18ec:	e5881004 	str	r1, [r8, #4]
    18f0:	e58d6528 	str	r6, [sp, #1320]
    18f4:	e58d5524 	str	r5, [sp, #1316]
    18f8:	ca000139 	bgt	1de4 <_vfprintf_r+0xd58>
    18fc:	e2888008 	add	r8, r8, #8	; 0x8
    1900:	e59d2020 	ldr	r2, [sp, #32]
    1904:	e3520000 	cmp	r2, #0	; 0x0
    1908:	0a00000b 	beq	193c <_vfprintf_r+0x8b0>
    190c:	e2855001 	add	r5, r5, #1	; 0x1
    1910:	e28d3d15 	add	r3, sp, #1344	; 0x540
    1914:	e2866002 	add	r6, r6, #2	; 0x2
    1918:	e2833009 	add	r3, r3, #9	; 0x9
    191c:	e3a02002 	mov	r2, #2	; 0x2
    1920:	e3550007 	cmp	r5, #7	; 0x7
    1924:	e5883000 	str	r3, [r8]
    1928:	e5882004 	str	r2, [r8, #4]
    192c:	e58d6528 	str	r6, [sp, #1320]
    1930:	e58d5524 	str	r5, [sp, #1316]
    1934:	ca000120 	bgt	1dbc <_vfprintf_r+0xd30>
    1938:	e2888008 	add	r8, r8, #8	; 0x8
    193c:	e59d3024 	ldr	r3, [sp, #36]
    1940:	e3530080 	cmp	r3, #128	; 0x80
    1944:	0a0001be 	beq	2044 <_vfprintf_r+0xfb8>
    1948:	e59d304c 	ldr	r3, [sp, #76]
    194c:	e0694003 	rsb	r4, r9, r3
    1950:	e3540000 	cmp	r4, #0	; 0x0
    1954:	da000027 	ble	19f8 <_vfprintf_r+0x96c>
    1958:	e3540010 	cmp	r4, #16	; 0x10
    195c:	d59f7a40 	ldrle	r7, [pc, #2624]	; 23a4 <_vfprintf_r+0x1318>
    1960:	da00001b 	ble	19d4 <_vfprintf_r+0x948>
    1964:	e59f7a38 	ldr	r7, [pc, #2616]	; 23a4 <_vfprintf_r+0x1318>
    1968:	e28dae52 	add	sl, sp, #1312	; 0x520
    196c:	ea000002 	b	197c <_vfprintf_r+0x8f0>
    1970:	e2444010 	sub	r4, r4, #16	; 0x10
    1974:	e3540010 	cmp	r4, #16	; 0x10
    1978:	da000015 	ble	19d4 <_vfprintf_r+0x948>
    197c:	e2855001 	add	r5, r5, #1	; 0x1
    1980:	e3550007 	cmp	r5, #7	; 0x7
    1984:	e2866010 	add	r6, r6, #16	; 0x10
    1988:	e3a0c010 	mov	ip, #16	; 0x10
    198c:	e8881080 	stm	r8, {r7, ip}
    1990:	e58d6528 	str	r6, [sp, #1320]
    1994:	e58d5524 	str	r5, [sp, #1316]
    1998:	d2888008 	addle	r8, r8, #8	; 0x8
    199c:	dafffff3 	ble	1970 <_vfprintf_r+0x8e4>
    19a0:	e59d001c 	ldr	r0, [sp, #28]
    19a4:	e59d1018 	ldr	r1, [sp, #24]
    19a8:	e1a0200a 	mov	r2, sl
    19ac:	ebfffdaa 	bl	105c <__sprint_r>
    19b0:	e28d8e4b 	add	r8, sp, #1200	; 0x4b0
    19b4:	e3500000 	cmp	r0, #0	; 0x0
    19b8:	e2888008 	add	r8, r8, #8	; 0x8
    19bc:	1affff0d 	bne	15f8 <_vfprintf_r+0x56c>
    19c0:	e2444010 	sub	r4, r4, #16	; 0x10
    19c4:	e3540010 	cmp	r4, #16	; 0x10
    19c8:	e59d6528 	ldr	r6, [sp, #1320]
    19cc:	e59d5524 	ldr	r5, [sp, #1316]
    19d0:	caffffe9 	bgt	197c <_vfprintf_r+0x8f0>
    19d4:	e2855001 	add	r5, r5, #1	; 0x1
    19d8:	e0866004 	add	r6, r6, r4
    19dc:	e3550007 	cmp	r5, #7	; 0x7
    19e0:	e5887000 	str	r7, [r8]
    19e4:	e5884004 	str	r4, [r8, #4]
    19e8:	e58d6528 	str	r6, [sp, #1320]
    19ec:	e58d5524 	str	r5, [sp, #1316]
    19f0:	ca00012b 	bgt	1ea4 <_vfprintf_r+0xe18>
    19f4:	e2888008 	add	r8, r8, #8	; 0x8
    19f8:	e31b0c01 	tst	fp, #256	; 0x100
    19fc:	1a000133 	bne	1ed0 <_vfprintf_r+0xe44>
    1a00:	e2853001 	add	r3, r5, #1	; 0x1
    1a04:	e59d1030 	ldr	r1, [sp, #48]
    1a08:	e0866009 	add	r6, r6, r9
    1a0c:	e3530007 	cmp	r3, #7	; 0x7
    1a10:	e8880202 	stm	r8, {r1, r9}
    1a14:	e58d6528 	str	r6, [sp, #1320]
    1a18:	e58d3524 	str	r3, [sp, #1316]
    1a1c:	ca000116 	bgt	1e7c <_vfprintf_r+0xdf0>
    1a20:	e2881008 	add	r1, r8, #8	; 0x8
    1a24:	e31b0004 	tst	fp, #4	; 0x4
    1a28:	0a000032 	beq	1af8 <_vfprintf_r+0xa6c>
    1a2c:	e59d2038 	ldr	r2, [sp, #56]
    1a30:	e59d3050 	ldr	r3, [sp, #80]
    1a34:	e0634002 	rsb	r4, r3, r2
    1a38:	e3540000 	cmp	r4, #0	; 0x0
    1a3c:	da00002d 	ble	1af8 <_vfprintf_r+0xa6c>
    1a40:	e3540010 	cmp	r4, #16	; 0x10
    1a44:	da00044d 	ble	2b80 <_vfprintf_r+0x1af4>
    1a48:	e59d5524 	ldr	r5, [sp, #1316]
    1a4c:	e59f795c 	ldr	r7, [pc, #2396]	; 23b0 <_vfprintf_r+0x1324>
    1a50:	e28d8e52 	add	r8, sp, #1312	; 0x520
    1a54:	ea000002 	b	1a64 <_vfprintf_r+0x9d8>
    1a58:	e2444010 	sub	r4, r4, #16	; 0x10
    1a5c:	e3540010 	cmp	r4, #16	; 0x10
    1a60:	da000015 	ble	1abc <_vfprintf_r+0xa30>
    1a64:	e2855001 	add	r5, r5, #1	; 0x1
    1a68:	e3550007 	cmp	r5, #7	; 0x7
    1a6c:	e2866010 	add	r6, r6, #16	; 0x10
    1a70:	e3a0c010 	mov	ip, #16	; 0x10
    1a74:	e8811080 	stm	r1, {r7, ip}
    1a78:	e58d6528 	str	r6, [sp, #1320]
    1a7c:	e58d5524 	str	r5, [sp, #1316]
    1a80:	d2811008 	addle	r1, r1, #8	; 0x8
    1a84:	dafffff3 	ble	1a58 <_vfprintf_r+0x9cc>
    1a88:	e59d1018 	ldr	r1, [sp, #24]
    1a8c:	e59d001c 	ldr	r0, [sp, #28]
    1a90:	e1a02008 	mov	r2, r8
    1a94:	ebfffd70 	bl	105c <__sprint_r>
    1a98:	e28d1e4b 	add	r1, sp, #1200	; 0x4b0
    1a9c:	e3500000 	cmp	r0, #0	; 0x0
    1aa0:	e2811008 	add	r1, r1, #8	; 0x8
    1aa4:	1afffed3 	bne	15f8 <_vfprintf_r+0x56c>
    1aa8:	e2444010 	sub	r4, r4, #16	; 0x10
    1aac:	e3540010 	cmp	r4, #16	; 0x10
    1ab0:	e59d6528 	ldr	r6, [sp, #1320]
    1ab4:	e59d5524 	ldr	r5, [sp, #1316]
    1ab8:	caffffe9 	bgt	1a64 <_vfprintf_r+0x9d8>
    1abc:	e2853001 	add	r3, r5, #1	; 0x1
    1ac0:	e0866004 	add	r6, r6, r4
    1ac4:	e3530007 	cmp	r3, #7	; 0x7
    1ac8:	e5817000 	str	r7, [r1]
    1acc:	e5814004 	str	r4, [r1, #4]
    1ad0:	e58d6528 	str	r6, [sp, #1320]
    1ad4:	e58d3524 	str	r3, [sp, #1316]
    1ad8:	da000006 	ble	1af8 <_vfprintf_r+0xa6c>
    1adc:	e59d001c 	ldr	r0, [sp, #28]
    1ae0:	e59d1018 	ldr	r1, [sp, #24]
    1ae4:	e28d2e52 	add	r2, sp, #1312	; 0x520
    1ae8:	ebfffd5b 	bl	105c <__sprint_r>
    1aec:	e3500000 	cmp	r0, #0	; 0x0
    1af0:	1afffec0 	bne	15f8 <_vfprintf_r+0x56c>
    1af4:	e59d6528 	ldr	r6, [sp, #1320]
    1af8:	e59d1034 	ldr	r1, [sp, #52]
    1afc:	e59d2050 	ldr	r2, [sp, #80]
    1b00:	e59d3038 	ldr	r3, [sp, #56]
    1b04:	e1520003 	cmp	r2, r3
    1b08:	a0811002 	addge	r1, r1, r2
    1b0c:	b0811003 	addlt	r1, r1, r3
    1b10:	e3560000 	cmp	r6, #0	; 0x0
    1b14:	e58d1034 	str	r1, [sp, #52]
    1b18:	1a000183 	bne	212c <_vfprintf_r+0x10a0>
    1b1c:	e3a05000 	mov	r5, #0	; 0x0
    1b20:	e28d8e4b 	add	r8, sp, #1200	; 0x4b0
    1b24:	e58d5524 	str	r5, [sp, #1316]
    1b28:	e59da058 	ldr	sl, [sp, #88]
    1b2c:	e2888008 	add	r8, r8, #8	; 0x8
    1b30:	eafffd7f 	b	1134 <_vfprintf_r+0xa8>
    1b34:	e31b0010 	tst	fp, #16	; 0x10
    1b38:	1a000099 	bne	1da4 <_vfprintf_r+0xd18>
    1b3c:	e31b0040 	tst	fp, #64	; 0x40
    1b40:	0a000097 	beq	1da4 <_vfprintf_r+0xd18>
    1b44:	e59d2058 	ldr	r2, [sp, #88]
    1b48:	e59d5034 	ldr	r5, [sp, #52]
    1b4c:	e5923000 	ldr	r3, [r2]
    1b50:	e282a004 	add	sl, r2, #4	; 0x4
    1b54:	e1c350b0 	strh	r5, [r3]
    1b58:	eafffd75 	b	1134 <_vfprintf_r+0xa8>
    1b5c:	e59d3058 	ldr	r3, [sp, #88]
    1b60:	e3a02078 	mov	r2, #120	; 0x78
    1b64:	e593c000 	ldr	ip, [r3]
    1b68:	e58d202c 	str	r2, [sp, #44]
    1b6c:	e5cd254a 	strb	r2, [sp, #1354]
    1b70:	e59d1058 	ldr	r1, [sp, #88]
    1b74:	e59f2810 	ldr	r2, [pc, #2064]	; 238c <_vfprintf_r+0x1300>
    1b78:	e3a03030 	mov	r3, #48	; 0x30
    1b7c:	e5cd3549 	strb	r3, [sp, #1353]
    1b80:	e38bb002 	orr	fp, fp, #2	; 0x2
    1b84:	e2816004 	add	r6, r1, #4	; 0x4
    1b88:	e243302e 	sub	r3, r3, #46	; 0x2e
    1b8c:	e58d2054 	str	r2, [sp, #84]
    1b90:	eafffe33 	b	1464 <_vfprintf_r+0x3d8>
    1b94:	e59f27f4 	ldr	r2, [pc, #2036]	; 2390 <_vfprintf_r+0x1304>
    1b98:	e31b0010 	tst	fp, #16	; 0x10
    1b9c:	e58d2054 	str	r2, [sp, #84]
    1ba0:	0a000042 	beq	1cb0 <_vfprintf_r+0xc24>
    1ba4:	e59d1058 	ldr	r1, [sp, #88]
    1ba8:	e591c000 	ldr	ip, [r1]
    1bac:	e2816004 	add	r6, r1, #4	; 0x4
    1bb0:	e35c0000 	cmp	ip, #0	; 0x0
    1bb4:	03a03000 	moveq	r3, #0	; 0x0
    1bb8:	120b3001 	andne	r3, fp, #1	; 0x1
    1bbc:	e3530000 	cmp	r3, #0	; 0x0
    1bc0:	159d102c 	ldrne	r1, [sp, #44]
    1bc4:	13a03030 	movne	r3, #48	; 0x30
    1bc8:	15cd3549 	strbne	r3, [sp, #1353]
    1bcc:	02833002 	addeq	r3, r3, #2	; 0x2
    1bd0:	15cd154a 	strbne	r1, [sp, #1354]
    1bd4:	138bb002 	orrne	fp, fp, #2	; 0x2
    1bd8:	1243302e 	subne	r3, r3, #46	; 0x2e
    1bdc:	eafffe20 	b	1464 <_vfprintf_r+0x3d8>
    1be0:	e3a03000 	mov	r3, #0	; 0x0
    1be4:	e5cd354b 	strb	r3, [sp, #1355]
    1be8:	e59d3058 	ldr	r3, [sp, #88]
    1bec:	e59dc058 	ldr	ip, [sp, #88]
    1bf0:	e5933000 	ldr	r3, [r3]
    1bf4:	e28cc004 	add	ip, ip, #4	; 0x4
    1bf8:	e3530000 	cmp	r3, #0	; 0x0
    1bfc:	e58d3030 	str	r3, [sp, #48]
    1c00:	e58dc058 	str	ip, [sp, #88]
    1c04:	0a0003e0 	beq	2b8c <_vfprintf_r+0x1b00>
    1c08:	e3550000 	cmp	r5, #0	; 0x0
    1c0c:	ba0003cf 	blt	2b50 <_vfprintf_r+0x1ac4>
    1c10:	e59d0030 	ldr	r0, [sp, #48]
    1c14:	e3a01000 	mov	r1, #0	; 0x0
    1c18:	e1a02005 	mov	r2, r5
    1c1c:	eb00103a 	bl	5d0c <memchr>
    1c20:	e3500000 	cmp	r0, #0	; 0x0
    1c24:	0a0003e6 	beq	2bc4 <_vfprintf_r+0x1b38>
    1c28:	e59d2030 	ldr	r2, [sp, #48]
    1c2c:	e0629000 	rsb	r9, r2, r0
    1c30:	e1590005 	cmp	r9, r5
    1c34:	d1c93fc9 	bicle	r3, r9, r9, asr #31
    1c38:	d3a05000 	movle	r5, #0	; 0x0
    1c3c:	c1a09005 	movgt	r9, r5
    1c40:	c3a0c000 	movgt	ip, #0	; 0x0
    1c44:	c1c55fc5 	bicgt	r5, r5, r5, asr #31
    1c48:	d58d3050 	strle	r3, [sp, #80]
    1c4c:	d58d504c 	strle	r5, [sp, #76]
    1c50:	c58d5050 	strgt	r5, [sp, #80]
    1c54:	c58dc04c 	strgt	ip, [sp, #76]
    1c58:	eafffe1c 	b	14d0 <_vfprintf_r+0x444>
    1c5c:	e59d202c 	ldr	r2, [sp, #44]
    1c60:	e3a03000 	mov	r3, #0	; 0x0
    1c64:	e2420030 	sub	r0, r2, #48	; 0x30
    1c68:	e59d1028 	ldr	r1, [sp, #40]
    1c6c:	e1a02183 	lsl	r2, r3, #3
    1c70:	e4d1c001 	ldrb	ip, [r1], #1
    1c74:	e1a03083 	lsl	r3, r3, #1
    1c78:	e0833002 	add	r3, r3, r2
    1c7c:	e0803003 	add	r3, r0, r3
    1c80:	e24c0030 	sub	r0, ip, #48	; 0x30
    1c84:	e3500009 	cmp	r0, #9	; 0x9
    1c88:	e58dc02c 	str	ip, [sp, #44]
    1c8c:	e58d1028 	str	r1, [sp, #40]
    1c90:	9afffff4 	bls	1c68 <_vfprintf_r+0xbdc>
    1c94:	e58d3038 	str	r3, [sp, #56]
    1c98:	e58d1028 	str	r1, [sp, #40]
    1c9c:	eafffd52 	b	11ec <_vfprintf_r+0x160>
    1ca0:	e59f36e4 	ldr	r3, [pc, #1764]	; 238c <_vfprintf_r+0x1300>
    1ca4:	e31b0010 	tst	fp, #16	; 0x10
    1ca8:	e58d3054 	str	r3, [sp, #84]
    1cac:	1affffbc 	bne	1ba4 <_vfprintf_r+0xb18>
    1cb0:	e31b0040 	tst	fp, #64	; 0x40
    1cb4:	159d2058 	ldrne	r2, [sp, #88]
    1cb8:	15923000 	ldrne	r3, [r2]
    1cbc:	059d3058 	ldreq	r3, [sp, #88]
    1cc0:	11a03803 	lslne	r3, r3, #16
    1cc4:	11a0c823 	lsrne	ip, r3, #16
    1cc8:	12826004 	addne	r6, r2, #4	; 0x4
    1ccc:	0593c000 	ldreq	ip, [r3]
    1cd0:	02836004 	addeq	r6, r3, #4	; 0x4
    1cd4:	eaffffb5 	b	1bb0 <_vfprintf_r+0xb24>
    1cd8:	e31b0008 	tst	fp, #8	; 0x8
    1cdc:	e59d3058 	ldr	r3, [sp, #88]
    1ce0:	0a000253 	beq	2634 <_vfprintf_r+0x15a8>
    1ce4:	e283c008 	add	ip, r3, #8	; 0x8
    1ce8:	e5931004 	ldr	r1, [r3, #4]
    1cec:	e5933000 	ldr	r3, [r3]
    1cf0:	e58dc058 	str	ip, [sp, #88]
    1cf4:	e58d1010 	str	r1, [sp, #16]
    1cf8:	e58d3014 	str	r3, [sp, #20]
    1cfc:	e59d3014 	ldr	r3, [sp, #20]
    1d00:	e59d4010 	ldr	r4, [sp, #16]
    1d04:	e1a00003 	mov	r0, r3
    1d08:	e1a01004 	mov	r1, r4
    1d0c:	eb001571 	bl	72d8 <__isinfd>
    1d10:	e2506000 	subs	r6, r0, #0	; 0x0
    1d14:	0a0002bd 	beq	2810 <_vfprintf_r+0x1784>
    1d18:	e59d3014 	ldr	r3, [sp, #20]
    1d1c:	e59d4010 	ldr	r4, [sp, #16]
    1d20:	e1a00003 	mov	r0, r3
    1d24:	e3a02000 	mov	r2, #0	; 0x0
    1d28:	e3a03000 	mov	r3, #0	; 0x0
    1d2c:	e1a01004 	mov	r1, r4
    1d30:	eb001be0 	bl	8cb8 <__ledf2>
    1d34:	e59d502c 	ldr	r5, [sp, #44]
    1d38:	e3500000 	cmp	r0, #0	; 0x0
    1d3c:	b3a0302d 	movlt	r3, #45	; 0x2d
    1d40:	e59f264c 	ldr	r2, [pc, #1612]	; 2394 <_vfprintf_r+0x1308>
    1d44:	b5cd354b 	strblt	r3, [sp, #1355]
    1d48:	e59f3648 	ldr	r3, [pc, #1608]	; 2398 <_vfprintf_r+0x130c>
    1d4c:	e3550047 	cmp	r5, #71	; 0x47
    1d50:	e3a09003 	mov	r9, #3	; 0x3
    1d54:	c1a03002 	movgt	r3, r2
    1d58:	e3a0c000 	mov	ip, #0	; 0x0
    1d5c:	e58d3030 	str	r3, [sp, #48]
    1d60:	e3cbb080 	bic	fp, fp, #128	; 0x80
    1d64:	e58dc04c 	str	ip, [sp, #76]
    1d68:	e58d9050 	str	r9, [sp, #80]
    1d6c:	eafffdd7 	b	14d0 <_vfprintf_r+0x444>
    1d70:	e59d1058 	ldr	r1, [sp, #88]
    1d74:	e5913000 	ldr	r3, [r1]
    1d78:	e5cd34f8 	strb	r3, [sp, #1272]
    1d7c:	e28d3e4f 	add	r3, sp, #1264	; 0x4f0
    1d80:	e3a09001 	mov	r9, #1	; 0x1
    1d84:	e3a02000 	mov	r2, #0	; 0x0
    1d88:	e2811004 	add	r1, r1, #4	; 0x4
    1d8c:	e2833008 	add	r3, r3, #8	; 0x8
    1d90:	e5cd254b 	strb	r2, [sp, #1355]
    1d94:	e58d1058 	str	r1, [sp, #88]
    1d98:	e58d3030 	str	r3, [sp, #48]
    1d9c:	e58d9050 	str	r9, [sp, #80]
    1da0:	eafffebb 	b	1894 <_vfprintf_r+0x808>
    1da4:	e59dc058 	ldr	ip, [sp, #88]
    1da8:	e59d1034 	ldr	r1, [sp, #52]
    1dac:	e59c3000 	ldr	r3, [ip]
    1db0:	e28ca004 	add	sl, ip, #4	; 0x4
    1db4:	e5831000 	str	r1, [r3]
    1db8:	eafffcdd 	b	1134 <_vfprintf_r+0xa8>
    1dbc:	e59d001c 	ldr	r0, [sp, #28]
    1dc0:	e59d1018 	ldr	r1, [sp, #24]
    1dc4:	e28d2e52 	add	r2, sp, #1312	; 0x520
    1dc8:	ebfffca3 	bl	105c <__sprint_r>
    1dcc:	e3500000 	cmp	r0, #0	; 0x0
    1dd0:	1afffe08 	bne	15f8 <_vfprintf_r+0x56c>
    1dd4:	e59d6528 	ldr	r6, [sp, #1320]
    1dd8:	e59d5524 	ldr	r5, [sp, #1316]
    1ddc:	e28d8e4b 	add	r8, sp, #1200	; 0x4b0
    1de0:	eafffed4 	b	1938 <_vfprintf_r+0x8ac>
    1de4:	e59d001c 	ldr	r0, [sp, #28]
    1de8:	e59d1018 	ldr	r1, [sp, #24]
    1dec:	e28d2e52 	add	r2, sp, #1312	; 0x520
    1df0:	ebfffc99 	bl	105c <__sprint_r>
    1df4:	e3500000 	cmp	r0, #0	; 0x0
    1df8:	1afffdfe 	bne	15f8 <_vfprintf_r+0x56c>
    1dfc:	e59d6528 	ldr	r6, [sp, #1320]
    1e00:	e59d5524 	ldr	r5, [sp, #1316]
    1e04:	e28d8e4b 	add	r8, sp, #1200	; 0x4b0
    1e08:	eafffebb 	b	18fc <_vfprintf_r+0x870>
    1e0c:	e2855001 	add	r5, r5, #1	; 0x1
    1e10:	e0866004 	add	r6, r6, r4
    1e14:	e3550007 	cmp	r5, #7	; 0x7
    1e18:	e5817000 	str	r7, [r1]
    1e1c:	e5814004 	str	r4, [r1, #4]
    1e20:	e58d6528 	str	r6, [sp, #1320]
    1e24:	e58d5524 	str	r5, [sp, #1316]
    1e28:	da000008 	ble	1e50 <_vfprintf_r+0xdc4>
    1e2c:	e59d001c 	ldr	r0, [sp, #28]
    1e30:	e59d1018 	ldr	r1, [sp, #24]
    1e34:	e28d2e52 	add	r2, sp, #1312	; 0x520
    1e38:	ebfffc87 	bl	105c <__sprint_r>
    1e3c:	e3500000 	cmp	r0, #0	; 0x0
    1e40:	1afffdec 	bne	15f8 <_vfprintf_r+0x56c>
    1e44:	e59d6528 	ldr	r6, [sp, #1320]
    1e48:	e59d5524 	ldr	r5, [sp, #1316]
    1e4c:	e28d1e4b 	add	r1, sp, #1200	; 0x4b0
    1e50:	e2811008 	add	r1, r1, #8	; 0x8
    1e54:	e59d2048 	ldr	r2, [sp, #72]
    1e58:	e2853001 	add	r3, r5, #1	; 0x1
    1e5c:	e59d5030 	ldr	r5, [sp, #48]
    1e60:	e0866002 	add	r6, r6, r2
    1e64:	e3530007 	cmp	r3, #7	; 0x7
    1e68:	e5815000 	str	r5, [r1]
    1e6c:	e5812004 	str	r2, [r1, #4]
    1e70:	e58d6528 	str	r6, [sp, #1320]
    1e74:	e58d3524 	str	r3, [sp, #1316]
    1e78:	da0000f1 	ble	2244 <_vfprintf_r+0x11b8>
    1e7c:	e59d001c 	ldr	r0, [sp, #28]
    1e80:	e59d1018 	ldr	r1, [sp, #24]
    1e84:	e28d2e52 	add	r2, sp, #1312	; 0x520
    1e88:	ebfffc73 	bl	105c <__sprint_r>
    1e8c:	e3500000 	cmp	r0, #0	; 0x0
    1e90:	1afffdd8 	bne	15f8 <_vfprintf_r+0x56c>
    1e94:	e28d1e4b 	add	r1, sp, #1200	; 0x4b0
    1e98:	e2811008 	add	r1, r1, #8	; 0x8
    1e9c:	e59d6528 	ldr	r6, [sp, #1320]
    1ea0:	eafffedf 	b	1a24 <_vfprintf_r+0x998>
    1ea4:	e59d001c 	ldr	r0, [sp, #28]
    1ea8:	e59d1018 	ldr	r1, [sp, #24]
    1eac:	e28d2e52 	add	r2, sp, #1312	; 0x520
    1eb0:	ebfffc69 	bl	105c <__sprint_r>
    1eb4:	e3500000 	cmp	r0, #0	; 0x0
    1eb8:	1afffdce 	bne	15f8 <_vfprintf_r+0x56c>
    1ebc:	e28d8e4b 	add	r8, sp, #1200	; 0x4b0
    1ec0:	e59d6528 	ldr	r6, [sp, #1320]
    1ec4:	e59d5524 	ldr	r5, [sp, #1316]
    1ec8:	e2888008 	add	r8, r8, #8	; 0x8
    1ecc:	eafffec9 	b	19f8 <_vfprintf_r+0x96c>
    1ed0:	e59d202c 	ldr	r2, [sp, #44]
    1ed4:	e3520065 	cmp	r2, #101	; 0x65
    1ed8:	da00009a 	ble	2148 <_vfprintf_r+0x10bc>
    1edc:	e59d3014 	ldr	r3, [sp, #20]
    1ee0:	e59d4010 	ldr	r4, [sp, #16]
    1ee4:	e1a00003 	mov	r0, r3
    1ee8:	e1a01004 	mov	r1, r4
    1eec:	e3a02000 	mov	r2, #0	; 0x0
    1ef0:	e3a03000 	mov	r3, #0	; 0x0
    1ef4:	eb001b71 	bl	8cc0 <__cmpdf2>
    1ef8:	e3500000 	cmp	r0, #0	; 0x0
    1efc:	1a0000f0 	bne	22c4 <_vfprintf_r+0x1238>
    1f00:	e59f3498 	ldr	r3, [pc, #1176]	; 23a0 <_vfprintf_r+0x1314>
    1f04:	e2852001 	add	r2, r5, #1	; 0x1
    1f08:	e3520007 	cmp	r2, #7	; 0x7
    1f0c:	e2866001 	add	r6, r6, #1	; 0x1
    1f10:	e5883000 	str	r3, [r8]
    1f14:	e3a03001 	mov	r3, #1	; 0x1
    1f18:	e5883004 	str	r3, [r8, #4]
    1f1c:	e58d6528 	str	r6, [sp, #1320]
    1f20:	e58d2524 	str	r2, [sp, #1316]
    1f24:	d2881008 	addle	r1, r8, #8	; 0x8
    1f28:	ca0001f7 	bgt	270c <_vfprintf_r+0x1680>
    1f2c:	e59d3544 	ldr	r3, [sp, #1348]
    1f30:	e59d5048 	ldr	r5, [sp, #72]
    1f34:	e1530005 	cmp	r3, r5
    1f38:	ba000001 	blt	1f44 <_vfprintf_r+0xeb8>
    1f3c:	e31b0001 	tst	fp, #1	; 0x1
    1f40:	0afffeb7 	beq	1a24 <_vfprintf_r+0x998>
    1f44:	e59d5524 	ldr	r5, [sp, #1316]
    1f48:	e59d803c 	ldr	r8, [sp, #60]
    1f4c:	e2853001 	add	r3, r5, #1	; 0x1
    1f50:	e2866001 	add	r6, r6, #1	; 0x1
    1f54:	e3a0c001 	mov	ip, #1	; 0x1
    1f58:	e3530007 	cmp	r3, #7	; 0x7
    1f5c:	e8811100 	stm	r1, {r8, ip}
    1f60:	e58d6528 	str	r6, [sp, #1320]
    1f64:	e58d3524 	str	r3, [sp, #1316]
    1f68:	ca0002ef 	bgt	2b2c <_vfprintf_r+0x1aa0>
    1f6c:	e59d2048 	ldr	r2, [sp, #72]
    1f70:	e2424001 	sub	r4, r2, #1	; 0x1
    1f74:	e3540000 	cmp	r4, #0	; 0x0
    1f78:	e2811008 	add	r1, r1, #8	; 0x8
    1f7c:	dafffea8 	ble	1a24 <_vfprintf_r+0x998>
    1f80:	e3540010 	cmp	r4, #16	; 0x10
    1f84:	da0001b2 	ble	2654 <_vfprintf_r+0x15c8>
    1f88:	e59d5524 	ldr	r5, [sp, #1316]
    1f8c:	e59f7410 	ldr	r7, [pc, #1040]	; 23a4 <_vfprintf_r+0x1318>
    1f90:	e28d8e52 	add	r8, sp, #1312	; 0x520
    1f94:	ea000002 	b	1fa4 <_vfprintf_r+0xf18>
    1f98:	e2444010 	sub	r4, r4, #16	; 0x10
    1f9c:	e3540010 	cmp	r4, #16	; 0x10
    1fa0:	da0001ad 	ble	265c <_vfprintf_r+0x15d0>
    1fa4:	e2855001 	add	r5, r5, #1	; 0x1
    1fa8:	e3550007 	cmp	r5, #7	; 0x7
    1fac:	e2866010 	add	r6, r6, #16	; 0x10
    1fb0:	e3a03010 	mov	r3, #16	; 0x10
    1fb4:	e5817000 	str	r7, [r1]
    1fb8:	e5813004 	str	r3, [r1, #4]
    1fbc:	e58d6528 	str	r6, [sp, #1320]
    1fc0:	e58d5524 	str	r5, [sp, #1316]
    1fc4:	d2811008 	addle	r1, r1, #8	; 0x8
    1fc8:	dafffff2 	ble	1f98 <_vfprintf_r+0xf0c>
    1fcc:	e59d1018 	ldr	r1, [sp, #24]
    1fd0:	e59d001c 	ldr	r0, [sp, #28]
    1fd4:	e1a02008 	mov	r2, r8
    1fd8:	ebfffc1f 	bl	105c <__sprint_r>
    1fdc:	e28d1e4b 	add	r1, sp, #1200	; 0x4b0
    1fe0:	e3500000 	cmp	r0, #0	; 0x0
    1fe4:	e2811008 	add	r1, r1, #8	; 0x8
    1fe8:	1afffd82 	bne	15f8 <_vfprintf_r+0x56c>
    1fec:	e59d6528 	ldr	r6, [sp, #1320]
    1ff0:	e59d5524 	ldr	r5, [sp, #1316]
    1ff4:	eaffffe7 	b	1f98 <_vfprintf_r+0xf0c>
    1ff8:	e20c3007 	and	r3, ip, #7	; 0x7
    1ffc:	e59d1030 	ldr	r1, [sp, #48]
    2000:	e2833030 	add	r3, r3, #48	; 0x30
    2004:	e5613001 	strb	r3, [r1, #-1]!
    2008:	e1b0c1ac 	lsrs	ip, ip, #3
    200c:	e58d1030 	str	r1, [sp, #48]
    2010:	1afffff8 	bne	1ff8 <_vfprintf_r+0xf6c>
    2014:	e31b0001 	tst	fp, #1	; 0x1
    2018:	00619000 	rsbeq	r9, r1, r0
    201c:	0afffd25 	beq	14b8 <_vfprintf_r+0x42c>
    2020:	e3530030 	cmp	r3, #48	; 0x30
    2024:	159dc030 	ldrne	ip, [sp, #48]
    2028:	13a03030 	movne	r3, #48	; 0x30
    202c:	156c3001 	strbne	r3, [ip, #-1]!
    2030:	059d2030 	ldreq	r2, [sp, #48]
    2034:	158dc030 	strne	ip, [sp, #48]
    2038:	00629000 	rsbeq	r9, r2, r0
    203c:	106c9000 	rsbne	r9, ip, r0
    2040:	eafffd1c 	b	14b8 <_vfprintf_r+0x42c>
    2044:	e59dc038 	ldr	ip, [sp, #56]
    2048:	e59d1050 	ldr	r1, [sp, #80]
    204c:	e061400c 	rsb	r4, r1, ip
    2050:	e3540000 	cmp	r4, #0	; 0x0
    2054:	dafffe3b 	ble	1948 <_vfprintf_r+0x8bc>
    2058:	e3540010 	cmp	r4, #16	; 0x10
    205c:	d59f7340 	ldrle	r7, [pc, #832]	; 23a4 <_vfprintf_r+0x1318>
    2060:	da00001c 	ble	20d8 <_vfprintf_r+0x104c>
    2064:	e59f7338 	ldr	r7, [pc, #824]	; 23a4 <_vfprintf_r+0x1318>
    2068:	e28dae52 	add	sl, sp, #1312	; 0x520
    206c:	ea000002 	b	207c <_vfprintf_r+0xff0>
    2070:	e2444010 	sub	r4, r4, #16	; 0x10
    2074:	e3540010 	cmp	r4, #16	; 0x10
    2078:	da000016 	ble	20d8 <_vfprintf_r+0x104c>
    207c:	e2855001 	add	r5, r5, #1	; 0x1
    2080:	e3550007 	cmp	r5, #7	; 0x7
    2084:	e2866010 	add	r6, r6, #16	; 0x10
    2088:	e3a02010 	mov	r2, #16	; 0x10
    208c:	e5887000 	str	r7, [r8]
    2090:	e5882004 	str	r2, [r8, #4]
    2094:	e58d6528 	str	r6, [sp, #1320]
    2098:	e58d5524 	str	r5, [sp, #1316]
    209c:	d2888008 	addle	r8, r8, #8	; 0x8
    20a0:	dafffff2 	ble	2070 <_vfprintf_r+0xfe4>
    20a4:	e59d001c 	ldr	r0, [sp, #28]
    20a8:	e59d1018 	ldr	r1, [sp, #24]
    20ac:	e1a0200a 	mov	r2, sl
    20b0:	ebfffbe9 	bl	105c <__sprint_r>
    20b4:	e28d8e4b 	add	r8, sp, #1200	; 0x4b0
    20b8:	e3500000 	cmp	r0, #0	; 0x0
    20bc:	e2888008 	add	r8, r8, #8	; 0x8
    20c0:	1afffd4c 	bne	15f8 <_vfprintf_r+0x56c>
    20c4:	e2444010 	sub	r4, r4, #16	; 0x10
    20c8:	e3540010 	cmp	r4, #16	; 0x10
    20cc:	e59d6528 	ldr	r6, [sp, #1320]
    20d0:	e59d5524 	ldr	r5, [sp, #1316]
    20d4:	caffffe8 	bgt	207c <_vfprintf_r+0xff0>
    20d8:	e2855001 	add	r5, r5, #1	; 0x1
    20dc:	e0866004 	add	r6, r6, r4
    20e0:	e3550007 	cmp	r5, #7	; 0x7
    20e4:	e5887000 	str	r7, [r8]
    20e8:	e5884004 	str	r4, [r8, #4]
    20ec:	e58d6528 	str	r6, [sp, #1320]
    20f0:	e58d5524 	str	r5, [sp, #1316]
    20f4:	ca000067 	bgt	2298 <_vfprintf_r+0x120c>
    20f8:	e2888008 	add	r8, r8, #8	; 0x8
    20fc:	eafffe11 	b	1948 <_vfprintf_r+0x8bc>
    2100:	e59d001c 	ldr	r0, [sp, #28]
    2104:	e59d1018 	ldr	r1, [sp, #24]
    2108:	e28d2e52 	add	r2, sp, #1312	; 0x520
    210c:	ebfffbd2 	bl	105c <__sprint_r>
    2110:	e3500000 	cmp	r0, #0	; 0x0
    2114:	1afffd37 	bne	15f8 <_vfprintf_r+0x56c>
    2118:	e28d8e4b 	add	r8, sp, #1200	; 0x4b0
    211c:	e59d6528 	ldr	r6, [sp, #1320]
    2120:	e59d5524 	ldr	r5, [sp, #1316]
    2124:	e2888008 	add	r8, r8, #8	; 0x8
    2128:	eafffde5 	b	18c4 <_vfprintf_r+0x838>
    212c:	e59d001c 	ldr	r0, [sp, #28]
    2130:	e59d1018 	ldr	r1, [sp, #24]
    2134:	e28d2e52 	add	r2, sp, #1312	; 0x520
    2138:	ebfffbc7 	bl	105c <__sprint_r>
    213c:	e3500000 	cmp	r0, #0	; 0x0
    2140:	0afffe75 	beq	1b1c <_vfprintf_r+0xa90>
    2144:	eafffd2b 	b	15f8 <_vfprintf_r+0x56c>
    2148:	e59dc048 	ldr	ip, [sp, #72]
    214c:	e35c0001 	cmp	ip, #1	; 0x1
    2150:	da000107 	ble	2574 <_vfprintf_r+0x14e8>
    2154:	e2855001 	add	r5, r5, #1	; 0x1
    2158:	e59d1030 	ldr	r1, [sp, #48]
    215c:	e2866001 	add	r6, r6, #1	; 0x1
    2160:	e3550007 	cmp	r5, #7	; 0x7
    2164:	e3a02001 	mov	r2, #1	; 0x1
    2168:	e8880006 	stm	r8, {r1, r2}
    216c:	e58d6528 	str	r6, [sp, #1320]
    2170:	e58d5524 	str	r5, [sp, #1316]
    2174:	d2883008 	addle	r3, r8, #8	; 0x8
    2178:	ca000112 	bgt	25c8 <_vfprintf_r+0x153c>
    217c:	e2855001 	add	r5, r5, #1	; 0x1
    2180:	e59d803c 	ldr	r8, [sp, #60]
    2184:	e2866001 	add	r6, r6, #1	; 0x1
    2188:	e3550007 	cmp	r5, #7	; 0x7
    218c:	e3a0c001 	mov	ip, #1	; 0x1
    2190:	e8831100 	stm	r3, {r8, ip}
    2194:	e58d6528 	str	r6, [sp, #1320]
    2198:	e58d5524 	str	r5, [sp, #1316]
    219c:	d2838008 	addle	r8, r3, #8	; 0x8
    21a0:	ca000113 	bgt	25f4 <_vfprintf_r+0x1568>
    21a4:	e59d3014 	ldr	r3, [sp, #20]
    21a8:	e59d4010 	ldr	r4, [sp, #16]
    21ac:	e1a00003 	mov	r0, r3
    21b0:	e1a01004 	mov	r1, r4
    21b4:	e3a02000 	mov	r2, #0	; 0x0
    21b8:	e3a03000 	mov	r3, #0	; 0x0
    21bc:	eb001abf 	bl	8cc0 <__cmpdf2>
    21c0:	e3500000 	cmp	r0, #0	; 0x0
    21c4:	0a0000c8 	beq	24ec <_vfprintf_r+0x1460>
    21c8:	e59d1048 	ldr	r1, [sp, #72]
    21cc:	e59dc030 	ldr	ip, [sp, #48]
    21d0:	e2855001 	add	r5, r5, #1	; 0x1
    21d4:	e2412001 	sub	r2, r1, #1	; 0x1
    21d8:	e0866002 	add	r6, r6, r2
    21dc:	e28c3001 	add	r3, ip, #1	; 0x1
    21e0:	e3550007 	cmp	r5, #7	; 0x7
    21e4:	e5883000 	str	r3, [r8]
    21e8:	e5882004 	str	r2, [r8, #4]
    21ec:	e58d6528 	str	r6, [sp, #1320]
    21f0:	e58d5524 	str	r5, [sp, #1316]
    21f4:	ca00001c 	bgt	226c <_vfprintf_r+0x11e0>
    21f8:	e2888008 	add	r8, r8, #8	; 0x8
    21fc:	e59d1044 	ldr	r1, [sp, #68]
    2200:	e2853001 	add	r3, r5, #1	; 0x1
    2204:	e28d0e53 	add	r0, sp, #1328	; 0x530
    2208:	e0866001 	add	r6, r6, r1
    220c:	e2800005 	add	r0, r0, #5	; 0x5
    2210:	e3530007 	cmp	r3, #7	; 0x7
    2214:	e8880003 	stm	r8, {r0, r1}
    2218:	e58d6528 	str	r6, [sp, #1320]
    221c:	e58d3524 	str	r3, [sp, #1316]
    2220:	dafffdfe 	ble	1a20 <_vfprintf_r+0x994>
    2224:	e59d001c 	ldr	r0, [sp, #28]
    2228:	e59d1018 	ldr	r1, [sp, #24]
    222c:	e28d2e52 	add	r2, sp, #1312	; 0x520
    2230:	ebfffb89 	bl	105c <__sprint_r>
    2234:	e3500000 	cmp	r0, #0	; 0x0
    2238:	1afffcee 	bne	15f8 <_vfprintf_r+0x56c>
    223c:	e59d6528 	ldr	r6, [sp, #1320]
    2240:	e28d1e4b 	add	r1, sp, #1200	; 0x4b0
    2244:	e2811008 	add	r1, r1, #8	; 0x8
    2248:	eafffdf5 	b	1a24 <_vfprintf_r+0x998>
    224c:	e2855001 	add	r5, r5, #1	; 0x1
    2250:	e0866004 	add	r6, r6, r4
    2254:	e3550007 	cmp	r5, #7	; 0x7
    2258:	e5887000 	str	r7, [r8]
    225c:	e5884004 	str	r4, [r8, #4]
    2260:	e58d6528 	str	r6, [sp, #1320]
    2264:	e58d5524 	str	r5, [sp, #1316]
    2268:	daffffe2 	ble	21f8 <_vfprintf_r+0x116c>
    226c:	e59d001c 	ldr	r0, [sp, #28]
    2270:	e59d1018 	ldr	r1, [sp, #24]
    2274:	e28d2e52 	add	r2, sp, #1312	; 0x520
    2278:	ebfffb77 	bl	105c <__sprint_r>
    227c:	e3500000 	cmp	r0, #0	; 0x0
    2280:	1afffcdc 	bne	15f8 <_vfprintf_r+0x56c>
    2284:	e28d8e4b 	add	r8, sp, #1200	; 0x4b0
    2288:	e2888008 	add	r8, r8, #8	; 0x8
    228c:	e59d6528 	ldr	r6, [sp, #1320]
    2290:	e59d5524 	ldr	r5, [sp, #1316]
    2294:	eaffffd8 	b	21fc <_vfprintf_r+0x1170>
    2298:	e59d001c 	ldr	r0, [sp, #28]
    229c:	e59d1018 	ldr	r1, [sp, #24]
    22a0:	e28d2e52 	add	r2, sp, #1312	; 0x520
    22a4:	ebfffb6c 	bl	105c <__sprint_r>
    22a8:	e3500000 	cmp	r0, #0	; 0x0
    22ac:	1afffcd1 	bne	15f8 <_vfprintf_r+0x56c>
    22b0:	e28d8e4b 	add	r8, sp, #1200	; 0x4b0
    22b4:	e59d6528 	ldr	r6, [sp, #1320]
    22b8:	e59d5524 	ldr	r5, [sp, #1316]
    22bc:	e2888008 	add	r8, r8, #8	; 0x8
    22c0:	eafffda0 	b	1948 <_vfprintf_r+0x8bc>
    22c4:	e59dc544 	ldr	ip, [sp, #1348]
    22c8:	e35c0000 	cmp	ip, #0	; 0x0
    22cc:	da000118 	ble	2734 <_vfprintf_r+0x16a8>
    22d0:	e59d1048 	ldr	r1, [sp, #72]
    22d4:	e15c0001 	cmp	ip, r1
    22d8:	ba0000e9 	blt	2684 <_vfprintf_r+0x15f8>
    22dc:	e2853001 	add	r3, r5, #1	; 0x1
    22e0:	e59d2030 	ldr	r2, [sp, #48]
    22e4:	e0866001 	add	r6, r6, r1
    22e8:	e3530007 	cmp	r3, #7	; 0x7
    22ec:	e5881004 	str	r1, [r8, #4]
    22f0:	e5882000 	str	r2, [r8]
    22f4:	e58d6528 	str	r6, [sp, #1320]
    22f8:	e58d3524 	str	r3, [sp, #1316]
    22fc:	d2881008 	addle	r1, r8, #8	; 0x8
    2300:	ca0001db 	bgt	2a74 <_vfprintf_r+0x19e8>
    2304:	e59d3048 	ldr	r3, [sp, #72]
    2308:	e063400c 	rsb	r4, r3, ip
    230c:	e3540000 	cmp	r4, #0	; 0x0
    2310:	da00003c 	ble	2408 <_vfprintf_r+0x137c>
    2314:	e3540010 	cmp	r4, #16	; 0x10
    2318:	da000027 	ble	23bc <_vfprintf_r+0x1330>
    231c:	e59d5524 	ldr	r5, [sp, #1316]
    2320:	e59f707c 	ldr	r7, [pc, #124]	; 23a4 <_vfprintf_r+0x1318>
    2324:	e28d8e52 	add	r8, sp, #1312	; 0x520
    2328:	ea000002 	b	2338 <_vfprintf_r+0x12ac>
    232c:	e2444010 	sub	r4, r4, #16	; 0x10
    2330:	e3540010 	cmp	r4, #16	; 0x10
    2334:	da000022 	ble	23c4 <_vfprintf_r+0x1338>
    2338:	e2855001 	add	r5, r5, #1	; 0x1
    233c:	e3550007 	cmp	r5, #7	; 0x7
    2340:	e2866010 	add	r6, r6, #16	; 0x10
    2344:	e3a0c010 	mov	ip, #16	; 0x10
    2348:	e8811080 	stm	r1, {r7, ip}
    234c:	e58d6528 	str	r6, [sp, #1320]
    2350:	e58d5524 	str	r5, [sp, #1316]
    2354:	d2811008 	addle	r1, r1, #8	; 0x8
    2358:	dafffff3 	ble	232c <_vfprintf_r+0x12a0>
    235c:	e59d1018 	ldr	r1, [sp, #24]
    2360:	e59d001c 	ldr	r0, [sp, #28]
    2364:	e1a02008 	mov	r2, r8
    2368:	ebfffb3b 	bl	105c <__sprint_r>
    236c:	e28d1e4b 	add	r1, sp, #1200	; 0x4b0
    2370:	e3500000 	cmp	r0, #0	; 0x0
    2374:	e2811008 	add	r1, r1, #8	; 0x8
    2378:	1afffc9e 	bne	15f8 <_vfprintf_r+0x56c>
    237c:	e59d6528 	ldr	r6, [sp, #1320]
    2380:	e59d5524 	ldr	r5, [sp, #1316]
    2384:	eaffffe8 	b	232c <_vfprintf_r+0x12a0>
    2388:	0000900c 	.word	0x0000900c
    238c:	00008ff0 	.word	0x00008ff0
    2390:	00008fcc 	.word	0x00008fcc
    2394:	00008fe0 	.word	0x00008fe0
    2398:	00008fe4 	.word	0x00008fe4
    239c:	cccccccd 	.word	0xcccccccd
    23a0:	00009028 	.word	0x00009028
    23a4:	00008e50 	.word	0x00008e50
    23a8:	00008fe8 	.word	0x00008fe8
    23ac:	00008fec 	.word	0x00008fec
    23b0:	00008e60 	.word	0x00008e60
    23b4:	00009004 	.word	0x00009004
    23b8:	66666667 	.word	0x66666667
    23bc:	e59d5524 	ldr	r5, [sp, #1316]
    23c0:	e51f7024 	ldr	r7, [pc, #-36]	; 23a4 <_vfprintf_r+0x1318>
    23c4:	e2853001 	add	r3, r5, #1	; 0x1
    23c8:	e0866004 	add	r6, r6, r4
    23cc:	e3530007 	cmp	r3, #7	; 0x7
    23d0:	e5817000 	str	r7, [r1]
    23d4:	e5814004 	str	r4, [r1, #4]
    23d8:	e58d6528 	str	r6, [sp, #1320]
    23dc:	e58d3524 	str	r3, [sp, #1316]
    23e0:	da000007 	ble	2404 <_vfprintf_r+0x1378>
    23e4:	e59d001c 	ldr	r0, [sp, #28]
    23e8:	e59d1018 	ldr	r1, [sp, #24]
    23ec:	e28d2e52 	add	r2, sp, #1312	; 0x520
    23f0:	ebfffb19 	bl	105c <__sprint_r>
    23f4:	e3500000 	cmp	r0, #0	; 0x0
    23f8:	1afffc7e 	bne	15f8 <_vfprintf_r+0x56c>
    23fc:	e59d6528 	ldr	r6, [sp, #1320]
    2400:	e28d1e4b 	add	r1, sp, #1200	; 0x4b0
    2404:	e2811008 	add	r1, r1, #8	; 0x8
    2408:	e31b0001 	tst	fp, #1	; 0x1
    240c:	0afffd84 	beq	1a24 <_vfprintf_r+0x998>
    2410:	e59d5524 	ldr	r5, [sp, #1316]
    2414:	e59d203c 	ldr	r2, [sp, #60]
    2418:	e2853001 	add	r3, r5, #1	; 0x1
    241c:	e2866001 	add	r6, r6, #1	; 0x1
    2420:	e3a05001 	mov	r5, #1	; 0x1
    2424:	e3530007 	cmp	r3, #7	; 0x7
    2428:	e8810024 	stm	r1, {r2, r5}
    242c:	e58d6528 	str	r6, [sp, #1320]
    2430:	e58d3524 	str	r3, [sp, #1316]
    2434:	cafffe90 	bgt	1e7c <_vfprintf_r+0xdf0>
    2438:	e2811008 	add	r1, r1, #8	; 0x8
    243c:	eafffd78 	b	1a24 <_vfprintf_r+0x998>
    2440:	e58d0030 	str	r0, [sp, #48]
    2444:	e59d1054 	ldr	r1, [sp, #84]
    2448:	e20c300f 	and	r3, ip, #15	; 0xf
    244c:	e7d12003 	ldrb	r2, [r1, r3]
    2450:	e59d3030 	ldr	r3, [sp, #48]
    2454:	e5632001 	strb	r2, [r3, #-1]!
    2458:	e1b0c22c 	lsrs	ip, ip, #4
    245c:	e58d3030 	str	r3, [sp, #48]
    2460:	1afffff7 	bne	2444 <_vfprintf_r+0x13b8>
    2464:	e0639000 	rsb	r9, r3, r0
    2468:	eafffc12 	b	14b8 <_vfprintf_r+0x42c>
    246c:	e35c0009 	cmp	ip, #9	; 0x9
    2470:	91a0e000 	movls	lr, r0
    2474:	9a00000c 	bls	24ac <_vfprintf_r+0x1420>
    2478:	e51f40e4 	ldr	r4, [pc, #-228]	; 239c <_vfprintf_r+0x1310>
    247c:	e1a0e000 	mov	lr, r0
    2480:	e0831c94 	umull	r1, r3, r4, ip
    2484:	e1a031a3 	lsr	r3, r3, #3
    2488:	e1a02083 	lsl	r2, r3, #1
    248c:	e1a01183 	lsl	r1, r3, #3
    2490:	e0822001 	add	r2, r2, r1
    2494:	e062200c 	rsb	r2, r2, ip
    2498:	e2822030 	add	r2, r2, #48	; 0x30
    249c:	e3530009 	cmp	r3, #9	; 0x9
    24a0:	e1a0c003 	mov	ip, r3
    24a4:	e56e2001 	strb	r2, [lr, #-1]!
    24a8:	8afffff4 	bhi	2480 <_vfprintf_r+0x13f4>
    24ac:	e24e2001 	sub	r2, lr, #1	; 0x1
    24b0:	e28c3030 	add	r3, ip, #48	; 0x30
    24b4:	e58d2030 	str	r2, [sp, #48]
    24b8:	e0629000 	rsb	r9, r2, r0
    24bc:	e54e3001 	strb	r3, [lr, #-1]
    24c0:	eafffbfc 	b	14b8 <_vfprintf_r+0x42c>
    24c4:	e59d001c 	ldr	r0, [sp, #28]
    24c8:	e59d1018 	ldr	r1, [sp, #24]
    24cc:	eb000258 	bl	2e34 <__swsetup_r>
    24d0:	e3500000 	cmp	r0, #0	; 0x0
    24d4:	1afffc4b 	bne	1608 <_vfprintf_r+0x57c>
    24d8:	e59d8018 	ldr	r8, [sp, #24]
    24dc:	e1d8c0bc 	ldrh	ip, [r8, #12]
    24e0:	e1a0380c 	lsl	r3, ip, #16
    24e4:	e1a02823 	lsr	r2, r3, #16
    24e8:	eafffb01 	b	10f4 <_vfprintf_r+0x68>
    24ec:	e59d1048 	ldr	r1, [sp, #72]
    24f0:	e2414001 	sub	r4, r1, #1	; 0x1
    24f4:	e3540000 	cmp	r4, #0	; 0x0
    24f8:	daffff3f 	ble	21fc <_vfprintf_r+0x1170>
    24fc:	e3540010 	cmp	r4, #16	; 0x10
    2500:	d51f7164 	ldrle	r7, [pc, #-356]	; 23a4 <_vfprintf_r+0x1318>
    2504:	daffff50 	ble	224c <_vfprintf_r+0x11c0>
    2508:	e51f716c 	ldr	r7, [pc, #-364]	; 23a4 <_vfprintf_r+0x1318>
    250c:	e28dae52 	add	sl, sp, #1312	; 0x520
    2510:	ea000002 	b	2520 <_vfprintf_r+0x1494>
    2514:	e2444010 	sub	r4, r4, #16	; 0x10
    2518:	e3540010 	cmp	r4, #16	; 0x10
    251c:	daffff4a 	ble	224c <_vfprintf_r+0x11c0>
    2520:	e2855001 	add	r5, r5, #1	; 0x1
    2524:	e3550007 	cmp	r5, #7	; 0x7
    2528:	e2866010 	add	r6, r6, #16	; 0x10
    252c:	e3a02010 	mov	r2, #16	; 0x10
    2530:	e5887000 	str	r7, [r8]
    2534:	e5882004 	str	r2, [r8, #4]
    2538:	e58d6528 	str	r6, [sp, #1320]
    253c:	e58d5524 	str	r5, [sp, #1316]
    2540:	d2888008 	addle	r8, r8, #8	; 0x8
    2544:	dafffff2 	ble	2514 <_vfprintf_r+0x1488>
    2548:	e59d001c 	ldr	r0, [sp, #28]
    254c:	e59d1018 	ldr	r1, [sp, #24]
    2550:	e1a0200a 	mov	r2, sl
    2554:	ebfffac0 	bl	105c <__sprint_r>
    2558:	e28d8e4b 	add	r8, sp, #1200	; 0x4b0
    255c:	e3500000 	cmp	r0, #0	; 0x0
    2560:	e2888008 	add	r8, r8, #8	; 0x8
    2564:	1afffc23 	bne	15f8 <_vfprintf_r+0x56c>
    2568:	e59d6528 	ldr	r6, [sp, #1320]
    256c:	e59d5524 	ldr	r5, [sp, #1316]
    2570:	eaffffe7 	b	2514 <_vfprintf_r+0x1488>
    2574:	e31b0001 	tst	fp, #1	; 0x1
    2578:	1afffef5 	bne	2154 <_vfprintf_r+0x10c8>
    257c:	e2855001 	add	r5, r5, #1	; 0x1
    2580:	e59d3030 	ldr	r3, [sp, #48]
    2584:	e2866001 	add	r6, r6, #1	; 0x1
    2588:	e3a0c001 	mov	ip, #1	; 0x1
    258c:	e3550007 	cmp	r5, #7	; 0x7
    2590:	e8881008 	stm	r8, {r3, ip}
    2594:	e58d6528 	str	r6, [sp, #1320]
    2598:	e58d5524 	str	r5, [sp, #1316]
    259c:	daffff15 	ble	21f8 <_vfprintf_r+0x116c>
    25a0:	e59d001c 	ldr	r0, [sp, #28]
    25a4:	e59d1018 	ldr	r1, [sp, #24]
    25a8:	e28d2e52 	add	r2, sp, #1312	; 0x520
    25ac:	ebfffaaa 	bl	105c <__sprint_r>
    25b0:	e3500000 	cmp	r0, #0	; 0x0
    25b4:	1afffc0f 	bne	15f8 <_vfprintf_r+0x56c>
    25b8:	e59d6528 	ldr	r6, [sp, #1320]
    25bc:	e59d5524 	ldr	r5, [sp, #1316]
    25c0:	e28d8e4b 	add	r8, sp, #1200	; 0x4b0
    25c4:	eaffff0b 	b	21f8 <_vfprintf_r+0x116c>
    25c8:	e59d001c 	ldr	r0, [sp, #28]
    25cc:	e59d1018 	ldr	r1, [sp, #24]
    25d0:	e28d2e52 	add	r2, sp, #1312	; 0x520
    25d4:	ebfffaa0 	bl	105c <__sprint_r>
    25d8:	e3500000 	cmp	r0, #0	; 0x0
    25dc:	1afffc05 	bne	15f8 <_vfprintf_r+0x56c>
    25e0:	e28d3e4b 	add	r3, sp, #1200	; 0x4b0
    25e4:	e59d6528 	ldr	r6, [sp, #1320]
    25e8:	e59d5524 	ldr	r5, [sp, #1316]
    25ec:	e2833008 	add	r3, r3, #8	; 0x8
    25f0:	eafffee1 	b	217c <_vfprintf_r+0x10f0>
    25f4:	e59d001c 	ldr	r0, [sp, #28]
    25f8:	e59d1018 	ldr	r1, [sp, #24]
    25fc:	e28d2e52 	add	r2, sp, #1312	; 0x520
    2600:	ebfffa95 	bl	105c <__sprint_r>
    2604:	e3500000 	cmp	r0, #0	; 0x0
    2608:	1afffbfa 	bne	15f8 <_vfprintf_r+0x56c>
    260c:	e28d8e4b 	add	r8, sp, #1200	; 0x4b0
    2610:	e59d6528 	ldr	r6, [sp, #1320]
    2614:	e59d5524 	ldr	r5, [sp, #1316]
    2618:	e2888008 	add	r8, r8, #8	; 0x8
    261c:	eafffee0 	b	21a4 <_vfprintf_r+0x1118>
    2620:	e59d2058 	ldr	r2, [sp, #88]
    2624:	e3a03001 	mov	r3, #1	; 0x1
    2628:	e592c000 	ldr	ip, [r2]
    262c:	e2826004 	add	r6, r2, #4	; 0x4
    2630:	eafffb8b 	b	1464 <_vfprintf_r+0x3d8>
    2634:	e5932004 	ldr	r2, [r3, #4]
    2638:	e5933000 	ldr	r3, [r3]
    263c:	e58d3014 	str	r3, [sp, #20]
    2640:	e59d3058 	ldr	r3, [sp, #88]
    2644:	e2833008 	add	r3, r3, #8	; 0x8
    2648:	e58d2010 	str	r2, [sp, #16]
    264c:	e58d3058 	str	r3, [sp, #88]
    2650:	eafffda9 	b	1cfc <_vfprintf_r+0xc70>
    2654:	e59d5524 	ldr	r5, [sp, #1316]
    2658:	e51f72bc 	ldr	r7, [pc, #-700]	; 23a4 <_vfprintf_r+0x1318>
    265c:	e2853001 	add	r3, r5, #1	; 0x1
    2660:	e0866004 	add	r6, r6, r4
    2664:	e3530007 	cmp	r3, #7	; 0x7
    2668:	e5817000 	str	r7, [r1]
    266c:	e5814004 	str	r4, [r1, #4]
    2670:	e58d6528 	str	r6, [sp, #1320]
    2674:	e58d3524 	str	r3, [sp, #1316]
    2678:	cafffdff 	bgt	1e7c <_vfprintf_r+0xdf0>
    267c:	e2811008 	add	r1, r1, #8	; 0x8
    2680:	eafffce7 	b	1a24 <_vfprintf_r+0x998>
    2684:	e2855001 	add	r5, r5, #1	; 0x1
    2688:	e59d1030 	ldr	r1, [sp, #48]
    268c:	e086600c 	add	r6, r6, ip
    2690:	e3550007 	cmp	r5, #7	; 0x7
    2694:	e8881002 	stm	r8, {r1, ip}
    2698:	e58d6528 	str	r6, [sp, #1320]
    269c:	e58d5524 	str	r5, [sp, #1316]
    26a0:	d2883008 	addle	r3, r8, #8	; 0x8
    26a4:	ca000109 	bgt	2ad0 <_vfprintf_r+0x1a44>
    26a8:	e2855001 	add	r5, r5, #1	; 0x1
    26ac:	e59d203c 	ldr	r2, [sp, #60]
    26b0:	e2866001 	add	r6, r6, #1	; 0x1
    26b4:	e3550007 	cmp	r5, #7	; 0x7
    26b8:	e3a08001 	mov	r8, #1	; 0x1
    26bc:	e8830104 	stm	r3, {r2, r8}
    26c0:	e58d6528 	str	r6, [sp, #1320]
    26c4:	e58d5524 	str	r5, [sp, #1316]
    26c8:	e1a0400c 	mov	r4, ip
    26cc:	d283e008 	addle	lr, r3, #8	; 0x8
    26d0:	ca0000f2 	bgt	2aa0 <_vfprintf_r+0x1a14>
    26d4:	e2850001 	add	r0, r5, #1	; 0x1
    26d8:	e59d3030 	ldr	r3, [sp, #48]
    26dc:	e59d5048 	ldr	r5, [sp, #72]
    26e0:	e06c2006 	rsb	r2, ip, r6
    26e4:	e0831004 	add	r1, r3, r4
    26e8:	e3500007 	cmp	r0, #7	; 0x7
    26ec:	e0826005 	add	r6, r2, r5
    26f0:	e06c3005 	rsb	r3, ip, r5
    26f4:	e88e000a 	stm	lr, {r1, r3}
    26f8:	e58d6528 	str	r6, [sp, #1320]
    26fc:	e58d0524 	str	r0, [sp, #1316]
    2700:	d28e1008 	addle	r1, lr, #8	; 0x8
    2704:	dafffcc6 	ble	1a24 <_vfprintf_r+0x998>
    2708:	eafffddb 	b	1e7c <_vfprintf_r+0xdf0>
    270c:	e59d001c 	ldr	r0, [sp, #28]
    2710:	e59d1018 	ldr	r1, [sp, #24]
    2714:	e28d2e52 	add	r2, sp, #1312	; 0x520
    2718:	ebfffa4f 	bl	105c <__sprint_r>
    271c:	e3500000 	cmp	r0, #0	; 0x0
    2720:	1afffbb4 	bne	15f8 <_vfprintf_r+0x56c>
    2724:	e28d1e4b 	add	r1, sp, #1200	; 0x4b0
    2728:	e59d6528 	ldr	r6, [sp, #1320]
    272c:	e2811008 	add	r1, r1, #8	; 0x8
    2730:	eafffdfd 	b	1f2c <_vfprintf_r+0xea0>
    2734:	e2852001 	add	r2, r5, #1	; 0x1
    2738:	e51f33a0 	ldr	r3, [pc, #-928]	; 23a0 <_vfprintf_r+0x1314>
    273c:	e3520007 	cmp	r2, #7	; 0x7
    2740:	e2866001 	add	r6, r6, #1	; 0x1
    2744:	e3a05001 	mov	r5, #1	; 0x1
    2748:	e8880028 	stm	r8, {r3, r5}
    274c:	e58d6528 	str	r6, [sp, #1320]
    2750:	e58d2524 	str	r2, [sp, #1316]
    2754:	d2881008 	addle	r1, r8, #8	; 0x8
    2758:	ca0000e8 	bgt	2b00 <_vfprintf_r+0x1a74>
    275c:	e35c0000 	cmp	ip, #0	; 0x0
    2760:	0a0000b2 	beq	2a30 <_vfprintf_r+0x19a4>
    2764:	e59d5524 	ldr	r5, [sp, #1316]
    2768:	e59d203c 	ldr	r2, [sp, #60]
    276c:	e2855001 	add	r5, r5, #1	; 0x1
    2770:	e2866001 	add	r6, r6, #1	; 0x1
    2774:	e3a03001 	mov	r3, #1	; 0x1
    2778:	e3550007 	cmp	r5, #7	; 0x7
    277c:	e881000c 	stm	r1, {r2, r3}
    2780:	e58d6528 	str	r6, [sp, #1320]
    2784:	e58d5524 	str	r5, [sp, #1316]
    2788:	ca000112 	bgt	2bd8 <_vfprintf_r+0x1b4c>
    278c:	e26c4000 	rsb	r4, ip, #0	; 0x0
    2790:	e3540000 	cmp	r4, #0	; 0x0
    2794:	e2811008 	add	r1, r1, #8	; 0x8
    2798:	dafffdad 	ble	1e54 <_vfprintf_r+0xdc8>
    279c:	e3540010 	cmp	r4, #16	; 0x10
    27a0:	d51f7404 	ldrle	r7, [pc, #-1028]	; 23a4 <_vfprintf_r+0x1318>
    27a4:	dafffd98 	ble	1e0c <_vfprintf_r+0xd80>
    27a8:	e51f740c 	ldr	r7, [pc, #-1036]	; 23a4 <_vfprintf_r+0x1318>
    27ac:	e28d8e52 	add	r8, sp, #1312	; 0x520
    27b0:	ea000002 	b	27c0 <_vfprintf_r+0x1734>
    27b4:	e2444010 	sub	r4, r4, #16	; 0x10
    27b8:	e3540010 	cmp	r4, #16	; 0x10
    27bc:	dafffd92 	ble	1e0c <_vfprintf_r+0xd80>
    27c0:	e2855001 	add	r5, r5, #1	; 0x1
    27c4:	e3550007 	cmp	r5, #7	; 0x7
    27c8:	e2866010 	add	r6, r6, #16	; 0x10
    27cc:	e3a0c010 	mov	ip, #16	; 0x10
    27d0:	e8811080 	stm	r1, {r7, ip}
    27d4:	e58d6528 	str	r6, [sp, #1320]
    27d8:	e58d5524 	str	r5, [sp, #1316]
    27dc:	d2811008 	addle	r1, r1, #8	; 0x8
    27e0:	dafffff3 	ble	27b4 <_vfprintf_r+0x1728>
    27e4:	e59d1018 	ldr	r1, [sp, #24]
    27e8:	e59d001c 	ldr	r0, [sp, #28]
    27ec:	e1a02008 	mov	r2, r8
    27f0:	ebfffa19 	bl	105c <__sprint_r>
    27f4:	e28d1e4b 	add	r1, sp, #1200	; 0x4b0
    27f8:	e3500000 	cmp	r0, #0	; 0x0
    27fc:	e2811008 	add	r1, r1, #8	; 0x8
    2800:	1afffb7c 	bne	15f8 <_vfprintf_r+0x56c>
    2804:	e59d6528 	ldr	r6, [sp, #1320]
    2808:	e59d5524 	ldr	r5, [sp, #1316]
    280c:	eaffffe8 	b	27b4 <_vfprintf_r+0x1728>
    2810:	e59d3014 	ldr	r3, [sp, #20]
    2814:	e59d4010 	ldr	r4, [sp, #16]
    2818:	e1a00003 	mov	r0, r3
    281c:	e1a01004 	mov	r1, r4
    2820:	eb0012bb 	bl	7314 <__isnand>
    2824:	e3500000 	cmp	r0, #0	; 0x0
    2828:	1a000086 	bne	2a48 <_vfprintf_r+0x19bc>
    282c:	e3750001 	cmn	r5, #1	; 0x1
    2830:	02855007 	addeq	r5, r5, #7	; 0x7
    2834:	0a000005 	beq	2850 <_vfprintf_r+0x17c4>
    2838:	e59d202c 	ldr	r2, [sp, #44]
    283c:	e3520047 	cmp	r2, #71	; 0x47
    2840:	13520067 	cmpne	r2, #103	; 0x67
    2844:	1a000001 	bne	2850 <_vfprintf_r+0x17c4>
    2848:	e3550000 	cmp	r5, #0	; 0x0
    284c:	03a05001 	moveq	r5, #1	; 0x1
    2850:	e59d3014 	ldr	r3, [sp, #20]
    2854:	e3530000 	cmp	r3, #0	; 0x0
    2858:	b59dc014 	ldrlt	ip, [sp, #20]
    285c:	e59d202c 	ldr	r2, [sp, #44]
    2860:	a3a03000 	movge	r3, #0	; 0x0
    2864:	b3a0102d 	movlt	r1, #45	; 0x2d
    2868:	a59da014 	ldrge	sl, [sp, #20]
    286c:	a59d9010 	ldrge	r9, [sp, #16]
    2870:	a58d3040 	strge	r3, [sp, #64]
    2874:	b28ca102 	addlt	sl, ip, #-2147483648	; 0x80000000
    2878:	b59d9010 	ldrlt	r9, [sp, #16]
    287c:	b58d1040 	strlt	r1, [sp, #64]
    2880:	e3520046 	cmp	r2, #70	; 0x46
    2884:	13520066 	cmpne	r2, #102	; 0x66
    2888:	e38bbc01 	orr	fp, fp, #256	; 0x100
    288c:	13a06000 	movne	r6, #0	; 0x0
    2890:	03a06001 	moveq	r6, #1	; 0x1
    2894:	01a07005 	moveq	r7, r5
    2898:	03a00003 	moveq	r0, #3	; 0x3
    289c:	0a000006 	beq	28bc <_vfprintf_r+0x1830>
    28a0:	e59d302c 	ldr	r3, [sp, #44]
    28a4:	e3530045 	cmp	r3, #69	; 0x45
    28a8:	13530065 	cmpne	r3, #101	; 0x65
    28ac:	11a07005 	movne	r7, r5
    28b0:	13a00002 	movne	r0, #2	; 0x2
    28b4:	02857001 	addeq	r7, r5, #1	; 0x1
    28b8:	03a00002 	moveq	r0, #2	; 0x2
    28bc:	e28dcd15 	add	ip, sp, #1344	; 0x540
    28c0:	e28cc004 	add	ip, ip, #4	; 0x4
    28c4:	e58dc004 	str	ip, [sp, #4]
    28c8:	e28dce53 	add	ip, sp, #1328	; 0x530
    28cc:	e28cc00c 	add	ip, ip, #12	; 0xc
    28d0:	e1a03000 	mov	r3, r0
    28d4:	e28ded15 	add	lr, sp, #1344	; 0x540
    28d8:	e1a0100a 	mov	r1, sl
    28dc:	e1a02009 	mov	r2, r9
    28e0:	e59d001c 	ldr	r0, [sp, #28]
    28e4:	e58dc00c 	str	ip, [sp, #12]
    28e8:	e58de008 	str	lr, [sp, #8]
    28ec:	e58d7000 	str	r7, [sp]
    28f0:	eb00021c 	bl	3168 <_dtoa_r>
    28f4:	e59dc02c 	ldr	ip, [sp, #44]
    28f8:	e35c0067 	cmp	ip, #103	; 0x67
    28fc:	135c0047 	cmpne	ip, #71	; 0x47
    2900:	e1a04009 	mov	r4, r9
    2904:	e58d0030 	str	r0, [sp, #48]
    2908:	1a000002 	bne	2918 <_vfprintf_r+0x188c>
    290c:	e31b0001 	tst	fp, #1	; 0x1
    2910:	059d253c 	ldreq	r2, [sp, #1340]
    2914:	0a00001c 	beq	298c <_vfprintf_r+0x1900>
    2918:	e59d1030 	ldr	r1, [sp, #48]
    291c:	e3560000 	cmp	r6, #0	; 0x0
    2920:	e0816007 	add	r6, r1, r7
    2924:	0a000004 	beq	293c <_vfprintf_r+0x18b0>
    2928:	e5d13000 	ldrb	r3, [r1]
    292c:	e3530030 	cmp	r3, #48	; 0x30
    2930:	0a000117 	beq	2d94 <_vfprintf_r+0x1d08>
    2934:	e59dc544 	ldr	ip, [sp, #1348]
    2938:	e086600c 	add	r6, r6, ip
    293c:	e3a02000 	mov	r2, #0	; 0x0
    2940:	e1a0000a 	mov	r0, sl
    2944:	e1a01009 	mov	r1, r9
    2948:	e3a03000 	mov	r3, #0	; 0x0
    294c:	eb0018db 	bl	8cc0 <__cmpdf2>
    2950:	e3500000 	cmp	r0, #0	; 0x0
    2954:	e1a04009 	mov	r4, r9
    2958:	058d653c 	streq	r6, [sp, #1340]
    295c:	01a02006 	moveq	r2, r6
    2960:	0a000009 	beq	298c <_vfprintf_r+0x1900>
    2964:	e59d153c 	ldr	r1, [sp, #1340]
    2968:	e1560001 	cmp	r6, r1
    296c:	e1a02001 	mov	r2, r1
    2970:	9a000005 	bls	298c <_vfprintf_r+0x1900>
    2974:	e3a03030 	mov	r3, #48	; 0x30
    2978:	e4c13001 	strb	r3, [r1], #1
    297c:	e1560001 	cmp	r6, r1
    2980:	e58d153c 	str	r1, [sp, #1340]
    2984:	8afffffb 	bhi	2978 <_vfprintf_r+0x18ec>
    2988:	e1a02001 	mov	r2, r1
    298c:	e28d302c 	add	r3, sp, #44	; 0x2c
    2990:	e8931008 	ldm	r3, {r3, ip}
    2994:	e3530047 	cmp	r3, #71	; 0x47
    2998:	13530067 	cmpne	r3, #103	; 0x67
    299c:	e06c2002 	rsb	r2, ip, r2
    29a0:	e58d2048 	str	r2, [sp, #72]
    29a4:	1a00009c 	bne	2c1c <_vfprintf_r+0x1b90>
    29a8:	e59dc544 	ldr	ip, [sp, #1348]
    29ac:	e37c0003 	cmn	ip, #3	; 0x3
    29b0:	ba0000ae 	blt	2c70 <_vfprintf_r+0x1be4>
    29b4:	e155000c 	cmp	r5, ip
    29b8:	a3a02067 	movge	r2, #103	; 0x67
    29bc:	a58d202c 	strge	r2, [sp, #44]
    29c0:	ba0000aa 	blt	2c70 <_vfprintf_r+0x1be4>
    29c4:	e59d3048 	ldr	r3, [sp, #72]
    29c8:	e15c0003 	cmp	ip, r3
    29cc:	e1a0900c 	mov	r9, ip
    29d0:	aa0000ea 	bge	2d80 <_vfprintf_r+0x1cf4>
    29d4:	e35c0000 	cmp	ip, #0	; 0x0
    29d8:	e59d1048 	ldr	r1, [sp, #72]
    29dc:	c3a00001 	movgt	r0, #1	; 0x1
    29e0:	d26c0002 	rsble	r0, ip, #2	; 0x2
    29e4:	e0809001 	add	r9, r0, r1
    29e8:	e1c92fc9 	bic	r2, r9, r9, asr #31
    29ec:	e58d2050 	str	r2, [sp, #80]
    29f0:	e59d3040 	ldr	r3, [sp, #64]
    29f4:	e3530000 	cmp	r3, #0	; 0x0
    29f8:	13a0302d 	movne	r3, #45	; 0x2d
    29fc:	13a05000 	movne	r5, #0	; 0x0
    2a00:	15cd354b 	strbne	r3, [sp, #1355]
    2a04:	158d504c 	strne	r5, [sp, #76]
    2a08:	1afffab3 	bne	14dc <_vfprintf_r+0x450>
    2a0c:	e59d2040 	ldr	r2, [sp, #64]
    2a10:	e1c93fc9 	bic	r3, r9, r9, asr #31
    2a14:	e58d204c 	str	r2, [sp, #76]
    2a18:	e58d3050 	str	r3, [sp, #80]
    2a1c:	eafffaab 	b	14d0 <_vfprintf_r+0x444>
    2a20:	e59d1038 	ldr	r1, [sp, #56]
    2a24:	e2611000 	rsb	r1, r1, #0	; 0x0
    2a28:	e58d1038 	str	r1, [sp, #56]
    2a2c:	eafffb56 	b	178c <_vfprintf_r+0x700>
    2a30:	e59d8048 	ldr	r8, [sp, #72]
    2a34:	e3580000 	cmp	r8, #0	; 0x0
    2a38:	1affff49 	bne	2764 <_vfprintf_r+0x16d8>
    2a3c:	e31b0001 	tst	fp, #1	; 0x1
    2a40:	0afffbf7 	beq	1a24 <_vfprintf_r+0x998>
    2a44:	eaffff46 	b	2764 <_vfprintf_r+0x16d8>
    2a48:	e59d102c 	ldr	r1, [sp, #44]
    2a4c:	e51f26ac 	ldr	r2, [pc, #-1708]	; 23a8 <_vfprintf_r+0x131c>
    2a50:	e51f36ac 	ldr	r3, [pc, #-1708]	; 23ac <_vfprintf_r+0x1320>
    2a54:	e3510047 	cmp	r1, #71	; 0x47
    2a58:	e3a09003 	mov	r9, #3	; 0x3
    2a5c:	c1a03002 	movgt	r3, r2
    2a60:	e58d3030 	str	r3, [sp, #48]
    2a64:	e3cbb080 	bic	fp, fp, #128	; 0x80
    2a68:	e58d604c 	str	r6, [sp, #76]
    2a6c:	e58d9050 	str	r9, [sp, #80]
    2a70:	eafffa96 	b	14d0 <_vfprintf_r+0x444>
    2a74:	e59d001c 	ldr	r0, [sp, #28]
    2a78:	e59d1018 	ldr	r1, [sp, #24]
    2a7c:	e28d2e52 	add	r2, sp, #1312	; 0x520
    2a80:	ebfff975 	bl	105c <__sprint_r>
    2a84:	e3500000 	cmp	r0, #0	; 0x0
    2a88:	1afffada 	bne	15f8 <_vfprintf_r+0x56c>
    2a8c:	e28d1e4b 	add	r1, sp, #1200	; 0x4b0
    2a90:	e59d6528 	ldr	r6, [sp, #1320]
    2a94:	e59dc544 	ldr	ip, [sp, #1348]
    2a98:	e2811008 	add	r1, r1, #8	; 0x8
    2a9c:	eafffe18 	b	2304 <_vfprintf_r+0x1278>
    2aa0:	e59d001c 	ldr	r0, [sp, #28]
    2aa4:	e59d1018 	ldr	r1, [sp, #24]
    2aa8:	e28d2e52 	add	r2, sp, #1312	; 0x520
    2aac:	ebfff96a 	bl	105c <__sprint_r>
    2ab0:	e3500000 	cmp	r0, #0	; 0x0
    2ab4:	1afffacf 	bne	15f8 <_vfprintf_r+0x56c>
    2ab8:	e28dee4b 	add	lr, sp, #1200	; 0x4b0
    2abc:	e59d6528 	ldr	r6, [sp, #1320]
    2ac0:	e59d5524 	ldr	r5, [sp, #1316]
    2ac4:	e59dc544 	ldr	ip, [sp, #1348]
    2ac8:	e28ee008 	add	lr, lr, #8	; 0x8
    2acc:	eaffff00 	b	26d4 <_vfprintf_r+0x1648>
    2ad0:	e59d001c 	ldr	r0, [sp, #28]
    2ad4:	e59d1018 	ldr	r1, [sp, #24]
    2ad8:	e28d2e52 	add	r2, sp, #1312	; 0x520
    2adc:	ebfff95e 	bl	105c <__sprint_r>
    2ae0:	e3500000 	cmp	r0, #0	; 0x0
    2ae4:	1afffac3 	bne	15f8 <_vfprintf_r+0x56c>
    2ae8:	e28d3e4b 	add	r3, sp, #1200	; 0x4b0
    2aec:	e59d6528 	ldr	r6, [sp, #1320]
    2af0:	e59d5524 	ldr	r5, [sp, #1316]
    2af4:	e59dc544 	ldr	ip, [sp, #1348]
    2af8:	e2833008 	add	r3, r3, #8	; 0x8
    2afc:	eafffee9 	b	26a8 <_vfprintf_r+0x161c>
    2b00:	e59d001c 	ldr	r0, [sp, #28]
    2b04:	e59d1018 	ldr	r1, [sp, #24]
    2b08:	e28d2e52 	add	r2, sp, #1312	; 0x520
    2b0c:	ebfff952 	bl	105c <__sprint_r>
    2b10:	e3500000 	cmp	r0, #0	; 0x0
    2b14:	1afffab7 	bne	15f8 <_vfprintf_r+0x56c>
    2b18:	e28d1e4b 	add	r1, sp, #1200	; 0x4b0
    2b1c:	e59d6528 	ldr	r6, [sp, #1320]
    2b20:	e59dc544 	ldr	ip, [sp, #1348]
    2b24:	e2811008 	add	r1, r1, #8	; 0x8
    2b28:	eaffff0b 	b	275c <_vfprintf_r+0x16d0>
    2b2c:	e59d001c 	ldr	r0, [sp, #28]
    2b30:	e59d1018 	ldr	r1, [sp, #24]
    2b34:	e28d2e52 	add	r2, sp, #1312	; 0x520
    2b38:	ebfff947 	bl	105c <__sprint_r>
    2b3c:	e3500000 	cmp	r0, #0	; 0x0
    2b40:	1afffaac 	bne	15f8 <_vfprintf_r+0x56c>
    2b44:	e59d6528 	ldr	r6, [sp, #1320]
    2b48:	e28d1e4b 	add	r1, sp, #1200	; 0x4b0
    2b4c:	eafffd06 	b	1f6c <_vfprintf_r+0xee0>
    2b50:	e59d0030 	ldr	r0, [sp, #48]
    2b54:	eb001272 	bl	7524 <strlen>
    2b58:	e3a02000 	mov	r2, #0	; 0x0
    2b5c:	e1c01fc0 	bic	r1, r0, r0, asr #31
    2b60:	e1a09000 	mov	r9, r0
    2b64:	e58d1050 	str	r1, [sp, #80]
    2b68:	e58d204c 	str	r2, [sp, #76]
    2b6c:	eafffa57 	b	14d0 <_vfprintf_r+0x444>
    2b70:	e59d6528 	ldr	r6, [sp, #1320]
    2b74:	e59d5524 	ldr	r5, [sp, #1316]
    2b78:	e51f77d0 	ldr	r7, [pc, #-2000]	; 23b0 <_vfprintf_r+0x1324>
    2b7c:	eafffa86 	b	159c <_vfprintf_r+0x510>
    2b80:	e59d5524 	ldr	r5, [sp, #1316]
    2b84:	e51f77dc 	ldr	r7, [pc, #-2012]	; 23b0 <_vfprintf_r+0x1324>
    2b88:	eafffbcb 	b	1abc <_vfprintf_r+0xa30>
    2b8c:	e3550006 	cmp	r5, #6	; 0x6
    2b90:	9a00001b 	bls	2c04 <_vfprintf_r+0x1b78>
    2b94:	e51f17e8 	ldr	r1, [pc, #-2024]	; 23b4 <_vfprintf_r+0x1328>
    2b98:	e3a09006 	mov	r9, #6	; 0x6
    2b9c:	e58d1030 	str	r1, [sp, #48]
    2ba0:	e58d9050 	str	r9, [sp, #80]
    2ba4:	eafffb3a 	b	1894 <_vfprintf_r+0x808>
    2ba8:	e59d001c 	ldr	r0, [sp, #28]
    2bac:	e59d1018 	ldr	r1, [sp, #24]
    2bb0:	e28d2e52 	add	r2, sp, #1312	; 0x520
    2bb4:	ebfff928 	bl	105c <__sprint_r>
    2bb8:	e3500000 	cmp	r0, #0	; 0x0
    2bbc:	1afffa8d 	bne	15f8 <_vfprintf_r+0x56c>
    2bc0:	eafffa8a 	b	15f0 <_vfprintf_r+0x564>
    2bc4:	e1a09005 	mov	r9, r5
    2bc8:	e1c55fc5 	bic	r5, r5, r5, asr #31
    2bcc:	e58d004c 	str	r0, [sp, #76]
    2bd0:	e58d5050 	str	r5, [sp, #80]
    2bd4:	eafffa3d 	b	14d0 <_vfprintf_r+0x444>
    2bd8:	e59d001c 	ldr	r0, [sp, #28]
    2bdc:	e59d1018 	ldr	r1, [sp, #24]
    2be0:	e28d2e52 	add	r2, sp, #1312	; 0x520
    2be4:	ebfff91c 	bl	105c <__sprint_r>
    2be8:	e3500000 	cmp	r0, #0	; 0x0
    2bec:	1afffa81 	bne	15f8 <_vfprintf_r+0x56c>
    2bf0:	e59d6528 	ldr	r6, [sp, #1320]
    2bf4:	e59d5524 	ldr	r5, [sp, #1316]
    2bf8:	e59dc544 	ldr	ip, [sp, #1348]
    2bfc:	e28d1e4b 	add	r1, sp, #1200	; 0x4b0
    2c00:	eafffee1 	b	278c <_vfprintf_r+0x1700>
    2c04:	e51f1858 	ldr	r1, [pc, #-2136]	; 23b4 <_vfprintf_r+0x1328>
    2c08:	e1a09005 	mov	r9, r5
    2c0c:	e1c55fc5 	bic	r5, r5, r5, asr #31
    2c10:	e58d1030 	str	r1, [sp, #48]
    2c14:	e58d5050 	str	r5, [sp, #80]
    2c18:	eafffb1d 	b	1894 <_vfprintf_r+0x808>
    2c1c:	e59d202c 	ldr	r2, [sp, #44]
    2c20:	e3520065 	cmp	r2, #101	; 0x65
    2c24:	da000069 	ble	2dd0 <_vfprintf_r+0x1d44>
    2c28:	e59d102c 	ldr	r1, [sp, #44]
    2c2c:	e3510066 	cmp	r1, #102	; 0x66
    2c30:	159dc544 	ldrne	ip, [sp, #1348]
    2c34:	1affff62 	bne	29c4 <_vfprintf_r+0x1938>
    2c38:	e59d9544 	ldr	r9, [sp, #1348]
    2c3c:	e3590000 	cmp	r9, #0	; 0x0
    2c40:	da000064 	ble	2dd8 <_vfprintf_r+0x1d4c>
    2c44:	e3550000 	cmp	r5, #0	; 0x0
    2c48:	1a000001 	bne	2c54 <_vfprintf_r+0x1bc8>
    2c4c:	e31b0001 	tst	fp, #1	; 0x1
    2c50:	0affff64 	beq	29e8 <_vfprintf_r+0x195c>
    2c54:	e2893001 	add	r3, r9, #1	; 0x1
    2c58:	e0839005 	add	r9, r3, r5
    2c5c:	e1c93fc9 	bic	r3, r9, r9, asr #31
    2c60:	e3a05066 	mov	r5, #102	; 0x66
    2c64:	e58d3050 	str	r3, [sp, #80]
    2c68:	e58d502c 	str	r5, [sp, #44]
    2c6c:	eaffff5f 	b	29f0 <_vfprintf_r+0x1964>
    2c70:	e59d102c 	ldr	r1, [sp, #44]
    2c74:	e2411002 	sub	r1, r1, #2	; 0x2
    2c78:	e58d102c 	str	r1, [sp, #44]
    2c7c:	e59d302c 	ldr	r3, [sp, #44]
    2c80:	e24cc001 	sub	ip, ip, #1	; 0x1
    2c84:	e35c0000 	cmp	ip, #0	; 0x0
    2c88:	e5cd3535 	strb	r3, [sp, #1333]
    2c8c:	e58dc544 	str	ip, [sp, #1348]
    2c90:	b3a0302d 	movlt	r3, #45	; 0x2d
    2c94:	a3a0302b 	movge	r3, #43	; 0x2b
    2c98:	b26cc000 	rsblt	ip, ip, #0	; 0x0
    2c9c:	b5cd3536 	strblt	r3, [sp, #1334]
    2ca0:	a5cd3536 	strbge	r3, [sp, #1334]
    2ca4:	e35c0009 	cmp	ip, #9	; 0x9
    2ca8:	d28c2030 	addle	r2, ip, #48	; 0x30
    2cac:	d5cd2538 	strble	r2, [sp, #1336]
    2cb0:	d3a03030 	movle	r3, #48	; 0x30
    2cb4:	d28d2e53 	addle	r2, sp, #1328	; 0x530
    2cb8:	d28d0e53 	addle	r0, sp, #1328	; 0x530
    2cbc:	d5cd3537 	strble	r3, [sp, #1335]
    2cc0:	d2822009 	addle	r2, r2, #9	; 0x9
    2cc4:	d2800005 	addle	r0, r0, #5	; 0x5
    2cc8:	da000022 	ble	2d58 <_vfprintf_r+0x1ccc>
    2ccc:	e28d4e53 	add	r4, sp, #1328	; 0x530
    2cd0:	e2844005 	add	r4, r4, #5	; 0x5
    2cd4:	e51f5924 	ldr	r5, [pc, #-2340]	; 23b8 <_vfprintf_r+0x132c>
    2cd8:	e1a00004 	mov	r0, r4
    2cdc:	e1a0e004 	mov	lr, r4
    2ce0:	e0c12c95 	smull	r2, r1, r5, ip
    2ce4:	e1a02fcc 	asr	r2, ip, #31
    2ce8:	e0622141 	rsb	r2, r2, r1, asr #2
    2cec:	e1a03082 	lsl	r3, r2, #1
    2cf0:	e1a01182 	lsl	r1, r2, #3
    2cf4:	e0833001 	add	r3, r3, r1
    2cf8:	e063300c 	rsb	r3, r3, ip
    2cfc:	e2833030 	add	r3, r3, #48	; 0x30
    2d00:	e3520009 	cmp	r2, #9	; 0x9
    2d04:	e1a0c002 	mov	ip, r2
    2d08:	e56e3001 	strb	r3, [lr, #-1]!
    2d0c:	cafffff3 	bgt	2ce0 <_vfprintf_r+0x1c54>
    2d10:	e2822030 	add	r2, r2, #48	; 0x30
    2d14:	e24e3001 	sub	r3, lr, #1	; 0x1
    2d18:	e20220ff 	and	r2, r2, #255	; 0xff
    2d1c:	e1540003 	cmp	r4, r3
    2d20:	e54e2001 	strb	r2, [lr, #-1]
    2d24:	928d2e53 	addls	r2, sp, #1328	; 0x530
    2d28:	92822007 	addls	r2, r2, #7	; 0x7
    2d2c:	9a000009 	bls	2d58 <_vfprintf_r+0x1ccc>
    2d30:	e28d1e53 	add	r1, sp, #1328	; 0x530
    2d34:	e1a0300e 	mov	r3, lr
    2d38:	e2811008 	add	r1, r1, #8	; 0x8
    2d3c:	ea000000 	b	2d44 <_vfprintf_r+0x1cb8>
    2d40:	e4d32001 	ldrb	r2, [r3], #1
    2d44:	e1540003 	cmp	r4, r3
    2d48:	e5412001 	strb	r2, [r1, #-1]
    2d4c:	e1a02001 	mov	r2, r1
    2d50:	e2811001 	add	r1, r1, #1	; 0x1
    2d54:	8afffff9 	bhi	2d40 <_vfprintf_r+0x1cb4>
    2d58:	e59d3048 	ldr	r3, [sp, #72]
    2d5c:	e0600002 	rsb	r0, r0, r2
    2d60:	e3530001 	cmp	r3, #1	; 0x1
    2d64:	e58d0044 	str	r0, [sp, #68]
    2d68:	e0809003 	add	r9, r0, r3
    2d6c:	da000003 	ble	2d80 <_vfprintf_r+0x1cf4>
    2d70:	e2899001 	add	r9, r9, #1	; 0x1
    2d74:	e1c9cfc9 	bic	ip, r9, r9, asr #31
    2d78:	e58dc050 	str	ip, [sp, #80]
    2d7c:	eaffff1b 	b	29f0 <_vfprintf_r+0x1964>
    2d80:	e31b0001 	tst	fp, #1	; 0x1
    2d84:	1afffff9 	bne	2d70 <_vfprintf_r+0x1ce4>
    2d88:	e1c95fc9 	bic	r5, r9, r9, asr #31
    2d8c:	e58d5050 	str	r5, [sp, #80]
    2d90:	eaffff16 	b	29f0 <_vfprintf_r+0x1964>
    2d94:	e3a03000 	mov	r3, #0	; 0x0
    2d98:	e1a0000a 	mov	r0, sl
    2d9c:	e1a01009 	mov	r1, r9
    2da0:	e3a02000 	mov	r2, #0	; 0x0
    2da4:	eb0017c5 	bl	8cc0 <__cmpdf2>
    2da8:	e3500000 	cmp	r0, #0	; 0x0
    2dac:	12673001 	rsbne	r3, r7, #1	; 0x1
    2db0:	158d3544 	strne	r3, [sp, #1348]
    2db4:	eafffede 	b	2934 <_vfprintf_r+0x18a8>
    2db8:	e59d3058 	ldr	r3, [sp, #88]
    2dbc:	e5935000 	ldr	r5, [r3]
    2dc0:	e2833004 	add	r3, r3, #4	; 0x4
    2dc4:	e1855fc5 	orr	r5, r5, r5, asr #31
    2dc8:	e58d3058 	str	r3, [sp, #88]
    2dcc:	eafff903 	b	11e0 <_vfprintf_r+0x154>
    2dd0:	e59dc544 	ldr	ip, [sp, #1348]
    2dd4:	eaffffa8 	b	2c7c <_vfprintf_r+0x1bf0>
    2dd8:	e3550000 	cmp	r5, #0	; 0x0
    2ddc:	1a000003 	bne	2df0 <_vfprintf_r+0x1d64>
    2de0:	e31b0001 	tst	fp, #1	; 0x1
    2de4:	03a09001 	moveq	r9, #1	; 0x1
    2de8:	058d9050 	streq	r9, [sp, #80]
    2dec:	0afffeff 	beq	29f0 <_vfprintf_r+0x1964>
    2df0:	e2859002 	add	r9, r5, #2	; 0x2
    2df4:	e1c9cfc9 	bic	ip, r9, r9, asr #31
    2df8:	e3a01066 	mov	r1, #102	; 0x66
    2dfc:	e58dc050 	str	ip, [sp, #80]
    2e00:	e58d102c 	str	r1, [sp, #44]
    2e04:	eafffef9 	b	29f0 <_vfprintf_r+0x1964>

00002e08 <vfprintf>:
    2e08:	e52d4004 	push	{r4}		; (str r4, [sp, #-4]!)
    2e0c:	e1a03002 	mov	r3, r2
    2e10:	e59f2018 	ldr	r2, [pc, #24]	; 2e30 <vfprintf+0x28>
    2e14:	e1a0c000 	mov	ip, r0
    2e18:	e1a04001 	mov	r4, r1
    2e1c:	e5920000 	ldr	r0, [r2]
    2e20:	e1a0100c 	mov	r1, ip
    2e24:	e1a02004 	mov	r2, r4
    2e28:	e8bd0010 	pop	{r4}
    2e2c:	eafff896 	b	108c <_vfprintf_r>
    2e30:	00200000 	.word	0x00200000

00002e34 <__swsetup_r>:
    2e34:	e59f3138 	ldr	r3, [pc, #312]	; 2f74 <__swsetup_r+0x140>
    2e38:	e5932000 	ldr	r2, [r3]
    2e3c:	e3520000 	cmp	r2, #0	; 0x0
    2e40:	e92d4030 	push	{r4, r5, lr}
    2e44:	e1a05000 	mov	r5, r0
    2e48:	e1a04001 	mov	r4, r1
    2e4c:	0a000002 	beq	2e5c <__swsetup_r+0x28>
    2e50:	e5923038 	ldr	r3, [r2, #56]
    2e54:	e3530000 	cmp	r3, #0	; 0x0
    2e58:	0a00001d 	beq	2ed4 <__swsetup_r+0xa0>
    2e5c:	e1d400bc 	ldrh	r0, [r4, #12]
    2e60:	e1a03800 	lsl	r3, r0, #16
    2e64:	e1a02823 	lsr	r2, r3, #16
    2e68:	e3120008 	tst	r2, #8	; 0x8
    2e6c:	e1a03000 	mov	r3, r0
    2e70:	15941010 	ldrne	r1, [r4, #16]
    2e74:	0a000023 	beq	2f08 <__swsetup_r+0xd4>
    2e78:	e3510000 	cmp	r1, #0	; 0x0
    2e7c:	0a000017 	beq	2ee0 <__swsetup_r+0xac>
    2e80:	e2123001 	ands	r3, r2, #1	; 0x1
    2e84:	1a000006 	bne	2ea4 <__swsetup_r+0x70>
    2e88:	e3120002 	tst	r2, #2	; 0x2
    2e8c:	05943014 	ldreq	r3, [r4, #20]
    2e90:	e3510000 	cmp	r1, #0	; 0x0
    2e94:	e5843008 	str	r3, [r4, #8]
    2e98:	0a000008 	beq	2ec0 <__swsetup_r+0x8c>
    2e9c:	e3a00000 	mov	r0, #0	; 0x0
    2ea0:	e8bd8030 	pop	{r4, r5, pc}
    2ea4:	e5943014 	ldr	r3, [r4, #20]
    2ea8:	e3a02000 	mov	r2, #0	; 0x0
    2eac:	e2633000 	rsb	r3, r3, #0	; 0x0
    2eb0:	e3510000 	cmp	r1, #0	; 0x0
    2eb4:	e5842008 	str	r2, [r4, #8]
    2eb8:	e5843018 	str	r3, [r4, #24]
    2ebc:	1afffff6 	bne	2e9c <__swsetup_r+0x68>
    2ec0:	e1d430bc 	ldrh	r3, [r4, #12]
    2ec4:	e3130080 	tst	r3, #128	; 0x80
    2ec8:	0afffff3 	beq	2e9c <__swsetup_r+0x68>
    2ecc:	e3e00000 	mvn	r0, #0	; 0x0
    2ed0:	e8bd8030 	pop	{r4, r5, pc}
    2ed4:	e1a00002 	mov	r0, r2
    2ed8:	eb000657 	bl	483c <__sinit>
    2edc:	eaffffde 	b	2e5c <__swsetup_r+0x28>
    2ee0:	e3120c02 	tst	r2, #512	; 0x200
    2ee4:	0a000001 	beq	2ef0 <__swsetup_r+0xbc>
    2ee8:	e3120080 	tst	r2, #128	; 0x80
    2eec:	0affffe3 	beq	2e80 <__swsetup_r+0x4c>
    2ef0:	e1a01004 	mov	r1, r4
    2ef4:	e1a00005 	mov	r0, r5
    2ef8:	eb00095d 	bl	5474 <__smakebuf_r>
    2efc:	e1d420bc 	ldrh	r2, [r4, #12]
    2f00:	e5941010 	ldr	r1, [r4, #16]
    2f04:	eaffffdd 	b	2e80 <__swsetup_r+0x4c>
    2f08:	e3120010 	tst	r2, #16	; 0x10
    2f0c:	0affffee 	beq	2ecc <__swsetup_r+0x98>
    2f10:	e3120004 	tst	r2, #4	; 0x4
    2f14:	05941010 	ldreq	r1, [r4, #16]
    2f18:	0a000010 	beq	2f60 <__swsetup_r+0x12c>
    2f1c:	e5941030 	ldr	r1, [r4, #48]
    2f20:	e3510000 	cmp	r1, #0	; 0x0
    2f24:	0a000007 	beq	2f48 <__swsetup_r+0x114>
    2f28:	e2843040 	add	r3, r4, #64	; 0x40
    2f2c:	e1510003 	cmp	r1, r3
    2f30:	0a000002 	beq	2f40 <__swsetup_r+0x10c>
    2f34:	e1a00005 	mov	r0, r5
    2f38:	eb000728 	bl	4be0 <_free_r>
    2f3c:	e1d400bc 	ldrh	r0, [r4, #12]
    2f40:	e3a03000 	mov	r3, #0	; 0x0
    2f44:	e5843030 	str	r3, [r4, #48]
    2f48:	e3c03024 	bic	r3, r0, #36	; 0x24
    2f4c:	e1c430bc 	strh	r3, [r4, #12]
    2f50:	e5941010 	ldr	r1, [r4, #16]
    2f54:	e3a03000 	mov	r3, #0	; 0x0
    2f58:	e884000a 	stm	r4, {r1, r3}
    2f5c:	e1d430bc 	ldrh	r3, [r4, #12]
    2f60:	e3833008 	orr	r3, r3, #8	; 0x8
    2f64:	e1a02803 	lsl	r2, r3, #16
    2f68:	e1c430bc 	strh	r3, [r4, #12]
    2f6c:	e1a02822 	lsr	r2, r2, #16
    2f70:	eaffffc0 	b	2e78 <__swsetup_r+0x44>
    2f74:	00200000 	.word	0x00200000

00002f78 <quorem>:
    2f78:	e92d4ff0 	push	{r4, r5, r6, r7, r8, r9, sl, fp, lr}
    2f7c:	e5903010 	ldr	r3, [r0, #16]
    2f80:	e5912010 	ldr	r2, [r1, #16]
    2f84:	e1520003 	cmp	r2, r3
    2f88:	e1a08000 	mov	r8, r0
    2f8c:	e24dd008 	sub	sp, sp, #8	; 0x8
    2f90:	e1a0a001 	mov	sl, r1
    2f94:	c3a00000 	movgt	r0, #0	; 0x0
    2f98:	ca00003c 	bgt	3090 <quorem+0x118>
    2f9c:	e2823004 	add	r3, r2, #4	; 0x4
    2fa0:	e7911103 	ldr	r1, [r1, r3, lsl #2]
    2fa4:	e7980103 	ldr	r0, [r8, r3, lsl #2]
    2fa8:	e1a03103 	lsl	r3, r3, #2
    2fac:	e08a3003 	add	r3, sl, r3
    2fb0:	e2811001 	add	r1, r1, #1	; 0x1
    2fb4:	e88d0009 	stm	sp, {r0, r3}
    2fb8:	e2427001 	sub	r7, r2, #1	; 0x1
    2fbc:	eb0014da 	bl	832c <__aeabi_uidiv>
    2fc0:	e2509000 	subs	r9, r0, #0	; 0x0
    2fc4:	e28a6014 	add	r6, sl, #20	; 0x14
    2fc8:	e288b014 	add	fp, r8, #20	; 0x14
    2fcc:	1a000031 	bne	3098 <quorem+0x120>
    2fd0:	e1a04007 	mov	r4, r7
    2fd4:	e1a0100a 	mov	r1, sl
    2fd8:	e1a00008 	mov	r0, r8
    2fdc:	eb000c59 	bl	6148 <__mcmp>
    2fe0:	e3500000 	cmp	r0, #0	; 0x0
    2fe4:	ba000028 	blt	308c <quorem+0x114>
    2fe8:	e2899001 	add	r9, r9, #1	; 0x1
    2fec:	e1a0c00b 	mov	ip, fp
    2ff0:	e3a0e000 	mov	lr, #0	; 0x0
    2ff4:	e59c0000 	ldr	r0, [ip]
    2ff8:	e4962004 	ldr	r2, [r6], #4
    2ffc:	e1a03800 	lsl	r3, r0, #16
    3000:	e1a01802 	lsl	r1, r2, #16
    3004:	e1a03823 	lsr	r3, r3, #16
    3008:	e1a01821 	lsr	r1, r1, #16
    300c:	e1a02822 	lsr	r2, r2, #16
    3010:	e0622820 	rsb	r2, r2, r0, lsr #16
    3014:	e0613003 	rsb	r3, r1, r3
    3018:	e59d0004 	ldr	r0, [sp, #4]
    301c:	e083300e 	add	r3, r3, lr
    3020:	e0822843 	add	r2, r2, r3, asr #16
    3024:	e1500006 	cmp	r0, r6
    3028:	e1cc20b2 	strh	r2, [ip, #2]
    302c:	e1a0e842 	asr	lr, r2, #16
    3030:	e0cc30b4 	strh	r3, [ip], #4
    3034:	2affffee 	bcs	2ff4 <quorem+0x7c>
    3038:	e2872005 	add	r2, r7, #5	; 0x5
    303c:	e7983102 	ldr	r3, [r8, r2, lsl #2]
    3040:	e3530000 	cmp	r3, #0	; 0x0
    3044:	1a000010 	bne	308c <quorem+0x114>
    3048:	e1a03102 	lsl	r3, r2, #2
    304c:	e0883003 	add	r3, r8, r3
    3050:	e2432004 	sub	r2, r3, #4	; 0x4
    3054:	e15b0002 	cmp	fp, r2
    3058:	2a00000a 	bcs	3088 <quorem+0x110>
    305c:	e5133004 	ldr	r3, [r3, #-4]
    3060:	e3530000 	cmp	r3, #0	; 0x0
    3064:	0a000003 	beq	3078 <quorem+0x100>
    3068:	ea000006 	b	3088 <quorem+0x110>
    306c:	e5923000 	ldr	r3, [r2]
    3070:	e3530000 	cmp	r3, #0	; 0x0
    3074:	1a000003 	bne	3088 <quorem+0x110>
    3078:	e2422004 	sub	r2, r2, #4	; 0x4
    307c:	e15b0002 	cmp	fp, r2
    3080:	e2444001 	sub	r4, r4, #1	; 0x1
    3084:	3afffff8 	bcc	306c <quorem+0xf4>
    3088:	e5884010 	str	r4, [r8, #16]
    308c:	e1a00009 	mov	r0, r9
    3090:	e28dd008 	add	sp, sp, #8	; 0x8
    3094:	e8bd8ff0 	pop	{r4, r5, r6, r7, r8, r9, sl, fp, pc}
    3098:	e3a04000 	mov	r4, #0	; 0x0
    309c:	e1a0e00b 	mov	lr, fp
    30a0:	e1a05006 	mov	r5, r6
    30a4:	e1a00004 	mov	r0, r4
    30a8:	e4952004 	ldr	r2, [r5], #4
    30ac:	e1a03802 	lsl	r3, r2, #16
    30b0:	e1a03823 	lsr	r3, r3, #16
    30b4:	e1a02822 	lsr	r2, r2, #16
    30b8:	e0210993 	mla	r1, r3, r9, r0
    30bc:	e0000992 	mul	r0, r2, r9
    30c0:	e59ec000 	ldr	ip, [lr]
    30c4:	e1a0280c 	lsl	r2, ip, #16
    30c8:	e0800821 	add	r0, r0, r1, lsr #16
    30cc:	e1a02822 	lsr	r2, r2, #16
    30d0:	e1a01801 	lsl	r1, r1, #16
    30d4:	e1a03800 	lsl	r3, r0, #16
    30d8:	e0842002 	add	r2, r4, r2
    30dc:	e1a01821 	lsr	r1, r1, #16
    30e0:	e0612002 	rsb	r2, r1, r2
    30e4:	e1a03823 	lsr	r3, r3, #16
    30e8:	e59d1004 	ldr	r1, [sp, #4]
    30ec:	e063382c 	rsb	r3, r3, ip, lsr #16
    30f0:	e0833842 	add	r3, r3, r2, asr #16
    30f4:	e1510005 	cmp	r1, r5
    30f8:	e1ce30b2 	strh	r3, [lr, #2]
    30fc:	e1a00820 	lsr	r0, r0, #16
    3100:	e0ce20b4 	strh	r2, [lr], #4
    3104:	e1a04843 	asr	r4, r3, #16
    3108:	2affffe6 	bcs	30a8 <quorem+0x130>
    310c:	e59d3000 	ldr	r3, [sp]
    3110:	e3530000 	cmp	r3, #0	; 0x0
    3114:	1affffad 	bne	2fd0 <quorem+0x58>
    3118:	e2873005 	add	r3, r7, #5	; 0x5
    311c:	e1a03103 	lsl	r3, r3, #2
    3120:	e0883003 	add	r3, r8, r3
    3124:	e2432004 	sub	r2, r3, #4	; 0x4
    3128:	e15b0002 	cmp	fp, r2
    312c:	2a00000a 	bcs	315c <quorem+0x1e4>
    3130:	e5133004 	ldr	r3, [r3, #-4]
    3134:	e3530000 	cmp	r3, #0	; 0x0
    3138:	0a000003 	beq	314c <quorem+0x1d4>
    313c:	ea000006 	b	315c <quorem+0x1e4>
    3140:	e5923000 	ldr	r3, [r2]
    3144:	e3530000 	cmp	r3, #0	; 0x0
    3148:	1a000003 	bne	315c <quorem+0x1e4>
    314c:	e2422004 	sub	r2, r2, #4	; 0x4
    3150:	e15b0002 	cmp	fp, r2
    3154:	e2477001 	sub	r7, r7, #1	; 0x1
    3158:	3afffff8 	bcc	3140 <quorem+0x1c8>
    315c:	e5887010 	str	r7, [r8, #16]
    3160:	e1a04007 	mov	r4, r7
    3164:	eaffff9a 	b	2fd4 <quorem+0x5c>

00003168 <_dtoa_r>:
    3168:	e92d4ff0 	push	{r4, r5, r6, r7, r8, r9, sl, fp, lr}
    316c:	e590c040 	ldr	ip, [r0, #64]
    3170:	e24dd060 	sub	sp, sp, #96	; 0x60
    3174:	e35c0000 	cmp	ip, #0	; 0x0
    3178:	e58d000c 	str	r0, [sp, #12]
    317c:	e58d3008 	str	r3, [sp, #8]
    3180:	e1a0a001 	mov	sl, r1
    3184:	e1a0b002 	mov	fp, r2
    3188:	e59d508c 	ldr	r5, [sp, #140]
    318c:	0a00000a 	beq	31bc <_dtoa_r+0x54>
    3190:	e5903044 	ldr	r3, [r0, #68]
    3194:	e58c3004 	str	r3, [ip, #4]
    3198:	e5902044 	ldr	r2, [r0, #68]
    319c:	e3a03001 	mov	r3, #1	; 0x1
    31a0:	e1a03213 	lsl	r3, r3, r2
    31a4:	e1a0100c 	mov	r1, ip
    31a8:	e58c3008 	str	r3, [ip, #8]
    31ac:	eb000ba3 	bl	6040 <_Bfree>
    31b0:	e59d200c 	ldr	r2, [sp, #12]
    31b4:	e3a03000 	mov	r3, #0	; 0x0
    31b8:	e5823040 	str	r3, [r2, #64]
    31bc:	e25a4000 	subs	r4, sl, #0	; 0x0
    31c0:	b3c44102 	biclt	r4, r4, #-2147483648	; 0x80000000
    31c4:	b3a03001 	movlt	r3, #1	; 0x1
    31c8:	a3a03000 	movge	r3, #0	; 0x0
    31cc:	e3c42102 	bic	r2, r4, #-2147483648	; 0x80000000
    31d0:	b5853000 	strlt	r3, [r5]
    31d4:	a5853000 	strge	r3, [r5]
    31d8:	e1a02a22 	lsr	r2, r2, #20
    31dc:	e3a0347f 	mov	r3, #2130706432	; 0x7f000000
    31e0:	e283360f 	add	r3, r3, #15728640	; 0xf00000
    31e4:	e1a02a02 	lsl	r2, r2, #20
    31e8:	b1a0a004 	movlt	sl, r4
    31ec:	e1520003 	cmp	r2, r3
    31f0:	0a00012e 	beq	36b0 <_dtoa_r+0x548>
    31f4:	e1a0000a 	mov	r0, sl
    31f8:	e1a0100b 	mov	r1, fp
    31fc:	e3a02000 	mov	r2, #0	; 0x0
    3200:	e3a03000 	mov	r3, #0	; 0x0
    3204:	e58da04c 	str	sl, [sp, #76]
    3208:	e58db050 	str	fp, [sp, #80]
    320c:	eb0016ab 	bl	8cc0 <__cmpdf2>
    3210:	e3500000 	cmp	r0, #0	; 0x0
    3214:	1a00000b 	bne	3248 <_dtoa_r+0xe0>
    3218:	e59d3090 	ldr	r3, [sp, #144]
    321c:	e59d4088 	ldr	r4, [sp, #136]
    3220:	e3530000 	cmp	r3, #0	; 0x0
    3224:	e3a03001 	mov	r3, #1	; 0x1
    3228:	e5843000 	str	r3, [r4]
    322c:	159dc090 	ldrne	ip, [sp, #144]
    3230:	159f3460 	ldrne	r3, [pc, #1120]	; 3698 <_dtoa_r+0x530>
    3234:	059f0460 	ldreq	r0, [pc, #1120]	; 369c <_dtoa_r+0x534>
    3238:	158c3000 	strne	r3, [ip]
    323c:	12430001 	subne	r0, r3, #1	; 0x1
    3240:	e28dd060 	add	sp, sp, #96	; 0x60
    3244:	e8bd8ff0 	pop	{r4, r5, r6, r7, r8, r9, sl, fp, pc}
    3248:	e28d104c 	add	r1, sp, #76	; 0x4c
    324c:	e8910006 	ldm	r1, {r1, r2}
    3250:	e28d3058 	add	r3, sp, #88	; 0x58
    3254:	e28dc05c 	add	ip, sp, #92	; 0x5c
    3258:	e59d000c 	ldr	r0, [sp, #12]
    325c:	e58dc000 	str	ip, [sp]
    3260:	eb000cb6 	bl	6540 <__d2b>
    3264:	e1a03a24 	lsr	r3, r4, #20
    3268:	e1a02a83 	lsl	r2, r3, #21
    326c:	e1a02aa2 	lsr	r2, r2, #21
    3270:	e3520000 	cmp	r2, #0	; 0x0
    3274:	e58d0044 	str	r0, [sp, #68]
    3278:	1a000123 	bne	370c <_dtoa_r+0x5a4>
    327c:	e28d3058 	add	r3, sp, #88	; 0x58
    3280:	e8930088 	ldm	r3, {r3, r7}
    3284:	e0873003 	add	r3, r7, r3
    3288:	e2831e43 	add	r1, r3, #1072	; 0x430
    328c:	e2811002 	add	r1, r1, #2	; 0x2
    3290:	e3510020 	cmp	r1, #32	; 0x20
    3294:	c2413020 	subgt	r3, r1, #32	; 0x20
    3298:	c1a0333b 	lsrgt	r3, fp, r3
    329c:	d2613020 	rsble	r3, r1, #32	; 0x20
    32a0:	c2612040 	rsbgt	r2, r1, #64	; 0x40
    32a4:	c1830214 	orrgt	r0, r3, r4, lsl r2
    32a8:	d1a0031b 	lslle	r0, fp, r3
    32ac:	e2416e43 	sub	r6, r1, #1072	; 0x430
    32b0:	eb00151d 	bl	872c <__aeabi_ui2d>
    32b4:	e3a03001 	mov	r3, #1	; 0x1
    32b8:	e58d3040 	str	r3, [sp, #64]
    32bc:	e2466003 	sub	r6, r6, #3	; 0x3
    32c0:	e240061f 	sub	r0, r0, #32505856	; 0x1f00000
    32c4:	e3a025ff 	mov	r2, #1069547520	; 0x3fc00000
    32c8:	e282270e 	add	r2, r2, #3670016	; 0x380000
    32cc:	e3a03000 	mov	r3, #0	; 0x0
    32d0:	eb00145c 	bl	8448 <__aeabi_dsub>
    32d4:	e28f2fe9 	add	r2, pc, #932	; 0x3a4
    32d8:	e892000c 	ldm	r2, {r2, r3}
    32dc:	eb001557 	bl	8840 <__aeabi_dmul>
    32e0:	e28f2e3a 	add	r2, pc, #928	; 0x3a0
    32e4:	e892000c 	ldm	r2, {r2, r3}
    32e8:	eb001457 	bl	844c <__adddf3>
    32ec:	e1a04000 	mov	r4, r0
    32f0:	e1a00006 	mov	r0, r6
    32f4:	e1a05001 	mov	r5, r1
    32f8:	eb001515 	bl	8754 <__aeabi_i2d>
    32fc:	e28f2fe3 	add	r2, pc, #908	; 0x38c
    3300:	e892000c 	ldm	r2, {r2, r3}
    3304:	eb00154d 	bl	8840 <__aeabi_dmul>
    3308:	e1a02000 	mov	r2, r0
    330c:	e1a03001 	mov	r3, r1
    3310:	e1a00004 	mov	r0, r4
    3314:	e1a01005 	mov	r1, r5
    3318:	eb00144b 	bl	844c <__adddf3>
    331c:	e1a04000 	mov	r4, r0
    3320:	e1a05001 	mov	r5, r1
    3324:	eb0016ab 	bl	8dd8 <__aeabi_d2iz>
    3328:	e1a01005 	mov	r1, r5
    332c:	e58d0048 	str	r0, [sp, #72]
    3330:	e3a02000 	mov	r2, #0	; 0x0
    3334:	e1a00004 	mov	r0, r4
    3338:	e3a03000 	mov	r3, #0	; 0x0
    333c:	eb00165d 	bl	8cb8 <__ledf2>
    3340:	e3500000 	cmp	r0, #0	; 0x0
    3344:	ba000206 	blt	3b64 <_dtoa_r+0x9fc>
    3348:	e59dc048 	ldr	ip, [sp, #72]
    334c:	e35c0016 	cmp	ip, #22	; 0x16
    3350:	83a00001 	movhi	r0, #1	; 0x1
    3354:	858d0030 	strhi	r0, [sp, #48]
    3358:	8a00000f 	bhi	339c <_dtoa_r+0x234>
    335c:	e59d1048 	ldr	r1, [sp, #72]
    3360:	e1a03181 	lsl	r3, r1, #3
    3364:	e59f133c 	ldr	r1, [pc, #828]	; 36a8 <_dtoa_r+0x540>
    3368:	e0811003 	add	r1, r1, r3
    336c:	e891000c 	ldm	r1, {r2, r3}
    3370:	e28d004c 	add	r0, sp, #76	; 0x4c
    3374:	e8900003 	ldm	r0, {r0, r1}
    3378:	eb00164e 	bl	8cb8 <__ledf2>
    337c:	e3500000 	cmp	r0, #0	; 0x0
    3380:	b59d3048 	ldrlt	r3, [sp, #72]
    3384:	a3a02000 	movge	r2, #0	; 0x0
    3388:	b2433001 	sublt	r3, r3, #1	; 0x1
    338c:	b3a04000 	movlt	r4, #0	; 0x0
    3390:	a58d2030 	strge	r2, [sp, #48]
    3394:	b58d3048 	strlt	r3, [sp, #72]
    3398:	b58d4030 	strlt	r4, [sp, #48]
    339c:	e2473001 	sub	r3, r7, #1	; 0x1
    33a0:	e0532006 	subs	r2, r3, r6
    33a4:	e59d1048 	ldr	r1, [sp, #72]
    33a8:	53a0c000 	movpl	ip, #0	; 0x0
    33ac:	42622000 	rsbmi	r2, r2, #0	; 0x0
    33b0:	43a00000 	movmi	r0, #0	; 0x0
    33b4:	558d2038 	strpl	r2, [sp, #56]
    33b8:	558dc020 	strpl	ip, [sp, #32]
    33bc:	458d2020 	strmi	r2, [sp, #32]
    33c0:	458d0038 	strmi	r0, [sp, #56]
    33c4:	e3510000 	cmp	r1, #0	; 0x0
    33c8:	ba0001ef 	blt	3b8c <_dtoa_r+0xa24>
    33cc:	e59d2038 	ldr	r2, [sp, #56]
    33d0:	e3a03000 	mov	r3, #0	; 0x0
    33d4:	e0822001 	add	r2, r2, r1
    33d8:	e58d2038 	str	r2, [sp, #56]
    33dc:	e58d103c 	str	r1, [sp, #60]
    33e0:	e58d3024 	str	r3, [sp, #36]
    33e4:	e59d2008 	ldr	r2, [sp, #8]
    33e8:	e3520009 	cmp	r2, #9	; 0x9
    33ec:	83a03000 	movhi	r3, #0	; 0x0
    33f0:	858d3008 	strhi	r3, [sp, #8]
    33f4:	83a05001 	movhi	r5, #1	; 0x1
    33f8:	9a00014a 	bls	3928 <_dtoa_r+0x7c0>
    33fc:	e3e0c000 	mvn	ip, #0	; 0x0
    3400:	e3a04000 	mov	r4, #0	; 0x0
    3404:	e3a00001 	mov	r0, #1	; 0x1
    3408:	e58d4084 	str	r4, [sp, #132]
    340c:	e58dc054 	str	ip, [sp, #84]
    3410:	e58dc028 	str	ip, [sp, #40]
    3414:	e58d0034 	str	r0, [sp, #52]
    3418:	e59dc00c 	ldr	ip, [sp, #12]
    341c:	e3a03000 	mov	r3, #0	; 0x0
    3420:	e58c3044 	str	r3, [ip, #68]
    3424:	e59d000c 	ldr	r0, [sp, #12]
    3428:	e5901044 	ldr	r1, [r0, #68]
    342c:	eb000c22 	bl	64bc <_Balloc>
    3430:	e1140005 	tst	r4, r5
    3434:	e59d400c 	ldr	r4, [sp, #12]
    3438:	e58d0010 	str	r0, [sp, #16]
    343c:	e5840040 	str	r0, [r4, #64]
    3440:	0a0000bf 	beq	3744 <_dtoa_r+0x5dc>
    3444:	e59dc048 	ldr	ip, [sp, #72]
    3448:	e35c0000 	cmp	ip, #0	; 0x0
    344c:	da000352 	ble	419c <_dtoa_r+0x1034>
    3450:	e20c200f 	and	r2, ip, #15	; 0xf
    3454:	e59f324c 	ldr	r3, [pc, #588]	; 36a8 <_dtoa_r+0x540>
    3458:	e1a02182 	lsl	r2, r2, #3
    345c:	e1a0424c 	asr	r4, ip, #4
    3460:	e0833002 	add	r3, r3, r2
    3464:	e3140010 	tst	r4, #16	; 0x10
    3468:	e89300c0 	ldm	r3, {r6, r7}
    346c:	1a0001cf 	bne	3bb0 <_dtoa_r+0xa48>
    3470:	e28da04c 	add	sl, sp, #76	; 0x4c
    3474:	e89a0c00 	ldm	sl, {sl, fp}
    3478:	e3a08002 	mov	r8, #2	; 0x2
    347c:	e3540000 	cmp	r4, #0	; 0x0
    3480:	0a00000c 	beq	34b8 <_dtoa_r+0x350>
    3484:	e59f5220 	ldr	r5, [pc, #544]	; 36ac <_dtoa_r+0x544>
    3488:	e3140001 	tst	r4, #1	; 0x1
    348c:	e1a00006 	mov	r0, r6
    3490:	e1a01007 	mov	r1, r7
    3494:	0a000004 	beq	34ac <_dtoa_r+0x344>
    3498:	e895000c 	ldm	r5, {r2, r3}
    349c:	eb0014e7 	bl	8840 <__aeabi_dmul>
    34a0:	e2888001 	add	r8, r8, #1	; 0x1
    34a4:	e1a06000 	mov	r6, r0
    34a8:	e1a07001 	mov	r7, r1
    34ac:	e1b040c4 	asrs	r4, r4, #1
    34b0:	e2855008 	add	r5, r5, #8	; 0x8
    34b4:	1afffff3 	bne	3488 <_dtoa_r+0x320>
    34b8:	e1a0000a 	mov	r0, sl
    34bc:	e1a0100b 	mov	r1, fp
    34c0:	e1a02006 	mov	r2, r6
    34c4:	e1a03007 	mov	r3, r7
    34c8:	eb001577 	bl	8aac <__aeabi_ddiv>
    34cc:	e1a0a000 	mov	sl, r0
    34d0:	e1a0b001 	mov	fp, r1
    34d4:	e59d1030 	ldr	r1, [sp, #48]
    34d8:	e3510000 	cmp	r1, #0	; 0x0
    34dc:	0a000259 	beq	3e48 <_dtoa_r+0xce0>
    34e0:	e3a025ff 	mov	r2, #1069547520	; 0x3fc00000
    34e4:	e2822603 	add	r2, r2, #3145728	; 0x300000
    34e8:	e3a03000 	mov	r3, #0	; 0x0
    34ec:	e1a0000a 	mov	r0, sl
    34f0:	e1a0100b 	mov	r1, fp
    34f4:	eb0015ef 	bl	8cb8 <__ledf2>
    34f8:	e59d2054 	ldr	r2, [sp, #84]
    34fc:	e3500000 	cmp	r0, #0	; 0x0
    3500:	e3a03000 	mov	r3, #0	; 0x0
    3504:	b3a03001 	movlt	r3, #1	; 0x1
    3508:	e3520000 	cmp	r2, #0	; 0x0
    350c:	d3a03000 	movle	r3, #0	; 0x0
    3510:	c2033001 	andgt	r3, r3, #1	; 0x1
    3514:	e3530000 	cmp	r3, #0	; 0x0
    3518:	0a00024a 	beq	3e48 <_dtoa_r+0xce0>
    351c:	e59d3028 	ldr	r3, [sp, #40]
    3520:	e3530000 	cmp	r3, #0	; 0x0
    3524:	da000084 	ble	373c <_dtoa_r+0x5d4>
    3528:	e3a02101 	mov	r2, #1073741824	; 0x40000000
    352c:	e1a0000a 	mov	r0, sl
    3530:	e1a0100b 	mov	r1, fp
    3534:	e2822709 	add	r2, r2, #2359296	; 0x240000
    3538:	e3a03000 	mov	r3, #0	; 0x0
    353c:	eb0014bf 	bl	8840 <__aeabi_dmul>
    3540:	e59d4048 	ldr	r4, [sp, #72]
    3544:	e2444001 	sub	r4, r4, #1	; 0x1
    3548:	e58d402c 	str	r4, [sp, #44]
    354c:	e59d9028 	ldr	r9, [sp, #40]
    3550:	e2888001 	add	r8, r8, #1	; 0x1
    3554:	e1a0a000 	mov	sl, r0
    3558:	e1a0b001 	mov	fp, r1
    355c:	e1a00008 	mov	r0, r8
    3560:	eb00147b 	bl	8754 <__aeabi_i2d>
    3564:	e1a0200a 	mov	r2, sl
    3568:	e1a0300b 	mov	r3, fp
    356c:	eb0014b3 	bl	8840 <__aeabi_dmul>
    3570:	e3a02101 	mov	r2, #1073741824	; 0x40000000
    3574:	e2822707 	add	r2, r2, #1835008	; 0x1c0000
    3578:	e3a03000 	mov	r3, #0	; 0x0
    357c:	eb0013b2 	bl	844c <__adddf3>
    3580:	e3590000 	cmp	r9, #0	; 0x0
    3584:	e1a05001 	mov	r5, r1
    3588:	e240450d 	sub	r4, r0, #54525952	; 0x3400000
    358c:	1a000231 	bne	3e58 <_dtoa_r+0xcf0>
    3590:	e3a02101 	mov	r2, #1073741824	; 0x40000000
    3594:	e2822705 	add	r2, r2, #1310720	; 0x140000
    3598:	e3a03000 	mov	r3, #0	; 0x0
    359c:	e1a0000a 	mov	r0, sl
    35a0:	e1a0100b 	mov	r1, fp
    35a4:	eb0013a7 	bl	8448 <__aeabi_dsub>
    35a8:	e1a08004 	mov	r8, r4
    35ac:	e1a06000 	mov	r6, r0
    35b0:	e1a07001 	mov	r7, r1
    35b4:	e1a02008 	mov	r2, r8
    35b8:	e1a03005 	mov	r3, r5
    35bc:	e1a00006 	mov	r0, r6
    35c0:	e1a01007 	mov	r1, r7
    35c4:	eb0015b9 	bl	8cb0 <__gedf2>
    35c8:	e3500000 	cmp	r0, #0	; 0x0
    35cc:	ca000302 	bgt	41dc <_dtoa_r+0x1074>
    35d0:	e2883102 	add	r3, r8, #-2147483648	; 0x80000000
    35d4:	e1a02003 	mov	r2, r3
    35d8:	e1a00006 	mov	r0, r6
    35dc:	e1a01007 	mov	r1, r7
    35e0:	e1a03005 	mov	r3, r5
    35e4:	eb0015b3 	bl	8cb8 <__ledf2>
    35e8:	e3500000 	cmp	r0, #0	; 0x0
    35ec:	aa000052 	bge	373c <_dtoa_r+0x5d4>
    35f0:	e3a06000 	mov	r6, #0	; 0x0
    35f4:	e1a05006 	mov	r5, r6
    35f8:	e59d0084 	ldr	r0, [sp, #132]
    35fc:	e1e00000 	mvn	r0, r0
    3600:	e58d0048 	str	r0, [sp, #72]
    3604:	e59db010 	ldr	fp, [sp, #16]
    3608:	e1a04006 	mov	r4, r6
    360c:	e3a09000 	mov	r9, #0	; 0x0
    3610:	e1a01005 	mov	r1, r5
    3614:	e59d000c 	ldr	r0, [sp, #12]
    3618:	eb000a88 	bl	6040 <_Bfree>
    361c:	e3540000 	cmp	r4, #0	; 0x0
    3620:	0a0000bd 	beq	391c <_dtoa_r+0x7b4>
    3624:	e3590000 	cmp	r9, #0	; 0x0
    3628:	11590004 	cmpne	r9, r4
    362c:	1a000273 	bne	4000 <_dtoa_r+0xe98>
    3630:	e1a01004 	mov	r1, r4
    3634:	e59d000c 	ldr	r0, [sp, #12]
    3638:	eb000a80 	bl	6040 <_Bfree>
    363c:	e59d3048 	ldr	r3, [sp, #72]
    3640:	e58d302c 	str	r3, [sp, #44]
    3644:	e59d000c 	ldr	r0, [sp, #12]
    3648:	e59d1044 	ldr	r1, [sp, #68]
    364c:	eb000a7b 	bl	6040 <_Bfree>
    3650:	e3a03000 	mov	r3, #0	; 0x0
    3654:	e59d0090 	ldr	r0, [sp, #144]
    3658:	e59dc02c 	ldr	ip, [sp, #44]
    365c:	e5cb3000 	strb	r3, [fp]
    3660:	e59d1088 	ldr	r1, [sp, #136]
    3664:	e28c2001 	add	r2, ip, #1	; 0x1
    3668:	e3500000 	cmp	r0, #0	; 0x0
    366c:	e5812000 	str	r2, [r1]
    3670:	159d2090 	ldrne	r2, [sp, #144]
    3674:	e59d0010 	ldr	r0, [sp, #16]
    3678:	1582b000 	strne	fp, [r2]
    367c:	eafffeef 	b	3240 <_dtoa_r+0xd8>
    3680:	3fd287a7 	.word	0x3fd287a7
    3684:	636f4361 	.word	0x636f4361
    3688:	3fc68a28 	.word	0x3fc68a28
    368c:	8b60c8b3 	.word	0x8b60c8b3
    3690:	3fd34413 	.word	0x3fd34413
    3694:	509f79fb 	.word	0x509f79fb
    3698:	00009029 	.word	0x00009029
    369c:	00009028 	.word	0x00009028
    36a0:	00009038 	.word	0x00009038
    36a4:	0000902c 	.word	0x0000902c
    36a8:	00008ea8 	.word	0x00008ea8
    36ac:	00008f70 	.word	0x00008f70
    36b0:	e3a03c27 	mov	r3, #9984	; 0x2700
    36b4:	e59dc088 	ldr	ip, [sp, #136]
    36b8:	e283300f 	add	r3, r3, #15	; 0xf
    36bc:	e35b0000 	cmp	fp, #0	; 0x0
    36c0:	e58c3000 	str	r3, [ip]
    36c4:	0a00000a 	beq	36f4 <_dtoa_r+0x58c>
    36c8:	e51f0030 	ldr	r0, [pc, #-48]	; 36a0 <_dtoa_r+0x538>
    36cc:	e59d1090 	ldr	r1, [sp, #144]
    36d0:	e3510000 	cmp	r1, #0	; 0x0
    36d4:	0afffed9 	beq	3240 <_dtoa_r+0xd8>
    36d8:	e5d03003 	ldrb	r3, [r0, #3]
    36dc:	e59d2090 	ldr	r2, [sp, #144]
    36e0:	e3530000 	cmp	r3, #0	; 0x0
    36e4:	e2803003 	add	r3, r0, #3	; 0x3
    36e8:	12803008 	addne	r3, r0, #8	; 0x8
    36ec:	e5823000 	str	r3, [r2]
    36f0:	eafffed2 	b	3240 <_dtoa_r+0xd8>
    36f4:	e3c434ff 	bic	r3, r4, #-16777216	; 0xff000000
    36f8:	e3c3360f 	bic	r3, r3, #15728640	; 0xf00000
    36fc:	e3530000 	cmp	r3, #0	; 0x0
    3700:	051f0064 	ldreq	r0, [pc, #-100]	; 36a4 <_dtoa_r+0x53c>
    3704:	0afffff0 	beq	36cc <_dtoa_r+0x564>
    3708:	eaffffee 	b	36c8 <_dtoa_r+0x560>
    370c:	e28d004c 	add	r0, sp, #76	; 0x4c
    3710:	e8900003 	ldm	r0, {r0, r1}
    3714:	e3c034ff 	bic	r3, r0, #-16777216	; 0xff000000
    3718:	e3c3360f 	bic	r3, r3, #15728640	; 0xf00000
    371c:	e2426fff 	sub	r6, r2, #1020	; 0x3fc
    3720:	e38305ff 	orr	r0, r3, #1069547520	; 0x3fc00000
    3724:	e3a02000 	mov	r2, #0	; 0x0
    3728:	e2466003 	sub	r6, r6, #3	; 0x3
    372c:	e3800603 	orr	r0, r0, #3145728	; 0x300000
    3730:	e58d2040 	str	r2, [sp, #64]
    3734:	e59d705c 	ldr	r7, [sp, #92]
    3738:	eafffee1 	b	32c4 <_dtoa_r+0x15c>
    373c:	e28da04c 	add	sl, sp, #76	; 0x4c
    3740:	e89a0c00 	ldm	sl, {sl, fp}
    3744:	e59d3058 	ldr	r3, [sp, #88]
    3748:	e59d4048 	ldr	r4, [sp, #72]
    374c:	e1e01003 	mvn	r1, r3
    3750:	e1a01fa1 	lsr	r1, r1, #31
    3754:	e354000e 	cmp	r4, #14	; 0xe
    3758:	c3a01000 	movgt	r1, #0	; 0x0
    375c:	e3510000 	cmp	r1, #0	; 0x0
    3760:	0a000081 	beq	396c <_dtoa_r+0x804>
    3764:	e59dc054 	ldr	ip, [sp, #84]
    3768:	e51f30c8 	ldr	r3, [pc, #-200]	; 36a8 <_dtoa_r+0x540>
    376c:	e59d0084 	ldr	r0, [sp, #132]
    3770:	e35c0000 	cmp	ip, #0	; 0x0
    3774:	c3a01000 	movgt	r1, #0	; 0x0
    3778:	d3a01001 	movle	r1, #1	; 0x1
    377c:	e1a02184 	lsl	r2, r4, #3
    3780:	e0833002 	add	r3, r3, r2
    3784:	e0110fa0 	ands	r0, r1, r0, lsr #31
    3788:	e8930180 	ldm	r3, {r7, r8}
    378c:	1a000135 	bne	3c68 <_dtoa_r+0xb00>
    3790:	e1a02007 	mov	r2, r7
    3794:	e1a03008 	mov	r3, r8
    3798:	e1a0100b 	mov	r1, fp
    379c:	e1a0000a 	mov	r0, sl
    37a0:	eb0014c1 	bl	8aac <__aeabi_ddiv>
    37a4:	eb00158b 	bl	8dd8 <__aeabi_d2iz>
    37a8:	e1a09000 	mov	r9, r0
    37ac:	eb0013e8 	bl	8754 <__aeabi_i2d>
    37b0:	e1a02007 	mov	r2, r7
    37b4:	e1a03008 	mov	r3, r8
    37b8:	eb001420 	bl	8840 <__aeabi_dmul>
    37bc:	e1a02000 	mov	r2, r0
    37c0:	e1a03001 	mov	r3, r1
    37c4:	e1a0000a 	mov	r0, sl
    37c8:	e1a0100b 	mov	r1, fp
    37cc:	eb00131d 	bl	8448 <__aeabi_dsub>
    37d0:	e59d2054 	ldr	r2, [sp, #84]
    37d4:	e59db010 	ldr	fp, [sp, #16]
    37d8:	e2893030 	add	r3, r9, #48	; 0x30
    37dc:	e3520001 	cmp	r2, #1	; 0x1
    37e0:	e4cb3001 	strb	r3, [fp], #1
    37e4:	e1a04000 	mov	r4, r0
    37e8:	e1a05001 	mov	r5, r1
    37ec:	0a000033 	beq	38c0 <_dtoa_r+0x758>
    37f0:	e3a02101 	mov	r2, #1073741824	; 0x40000000
    37f4:	e2822709 	add	r2, r2, #2359296	; 0x240000
    37f8:	e3a03000 	mov	r3, #0	; 0x0
    37fc:	eb00140f 	bl	8840 <__aeabi_dmul>
    3800:	e3a02000 	mov	r2, #0	; 0x0
    3804:	e3a03000 	mov	r3, #0	; 0x0
    3808:	e1a04000 	mov	r4, r0
    380c:	e1a05001 	mov	r5, r1
    3810:	eb00152a 	bl	8cc0 <__cmpdf2>
    3814:	e3500000 	cmp	r0, #0	; 0x0
    3818:	159dc010 	ldrne	ip, [sp, #16]
    381c:	13a0a001 	movne	sl, #1	; 0x1
    3820:	128c6002 	addne	r6, ip, #2	; 0x2
    3824:	1a000008 	bne	384c <_dtoa_r+0x6e4>
    3828:	ea00003b 	b	391c <_dtoa_r+0x7b4>
    382c:	eb001403 	bl	8840 <__aeabi_dmul>
    3830:	e3a02000 	mov	r2, #0	; 0x0
    3834:	e3a03000 	mov	r3, #0	; 0x0
    3838:	e1a04000 	mov	r4, r0
    383c:	e1a05001 	mov	r5, r1
    3840:	eb00151e 	bl	8cc0 <__cmpdf2>
    3844:	e3500000 	cmp	r0, #0	; 0x0
    3848:	0a000033 	beq	391c <_dtoa_r+0x7b4>
    384c:	e1a02007 	mov	r2, r7
    3850:	e1a03008 	mov	r3, r8
    3854:	e1a00004 	mov	r0, r4
    3858:	e1a01005 	mov	r1, r5
    385c:	eb001492 	bl	8aac <__aeabi_ddiv>
    3860:	eb00155c 	bl	8dd8 <__aeabi_d2iz>
    3864:	e1a09000 	mov	r9, r0
    3868:	eb0013b9 	bl	8754 <__aeabi_i2d>
    386c:	e1a02007 	mov	r2, r7
    3870:	e1a03008 	mov	r3, r8
    3874:	eb0013f1 	bl	8840 <__aeabi_dmul>
    3878:	e1a02000 	mov	r2, r0
    387c:	e1a03001 	mov	r3, r1
    3880:	e1a00004 	mov	r0, r4
    3884:	e1a01005 	mov	r1, r5
    3888:	eb0012ee 	bl	8448 <__aeabi_dsub>
    388c:	e59dc054 	ldr	ip, [sp, #84]
    3890:	e28aa001 	add	sl, sl, #1	; 0x1
    3894:	e3a02101 	mov	r2, #1073741824	; 0x40000000
    3898:	e15c000a 	cmp	ip, sl
    389c:	e289c030 	add	ip, r9, #48	; 0x30
    38a0:	e546c001 	strb	ip, [r6, #-1]
    38a4:	e1a0b006 	mov	fp, r6
    38a8:	e1a04000 	mov	r4, r0
    38ac:	e1a05001 	mov	r5, r1
    38b0:	e2822709 	add	r2, r2, #2359296	; 0x240000
    38b4:	e3a03000 	mov	r3, #0	; 0x0
    38b8:	e2866001 	add	r6, r6, #1	; 0x1
    38bc:	1affffda 	bne	382c <_dtoa_r+0x6c4>
    38c0:	e1a02004 	mov	r2, r4
    38c4:	e1a03005 	mov	r3, r5
    38c8:	e1a00004 	mov	r0, r4
    38cc:	e1a01005 	mov	r1, r5
    38d0:	eb0012dd 	bl	844c <__adddf3>
    38d4:	e1a04000 	mov	r4, r0
    38d8:	e1a05001 	mov	r5, r1
    38dc:	e1a00007 	mov	r0, r7
    38e0:	e1a01008 	mov	r1, r8
    38e4:	e1a02004 	mov	r2, r4
    38e8:	e1a03005 	mov	r3, r5
    38ec:	eb0014f1 	bl	8cb8 <__ledf2>
    38f0:	e3500000 	cmp	r0, #0	; 0x0
    38f4:	ba000140 	blt	3dfc <_dtoa_r+0xc94>
    38f8:	e1a00007 	mov	r0, r7
    38fc:	e1a01008 	mov	r1, r8
    3900:	e1a02004 	mov	r2, r4
    3904:	e1a03005 	mov	r3, r5
    3908:	eb0014ec 	bl	8cc0 <__cmpdf2>
    390c:	e3500000 	cmp	r0, #0	; 0x0
    3910:	1a000001 	bne	391c <_dtoa_r+0x7b4>
    3914:	e3190001 	tst	r9, #1	; 0x1
    3918:	1a000137 	bne	3dfc <_dtoa_r+0xc94>
    391c:	e59d4048 	ldr	r4, [sp, #72]
    3920:	e58d402c 	str	r4, [sp, #44]
    3924:	eaffff46 	b	3644 <_dtoa_r+0x4dc>
    3928:	e59d4008 	ldr	r4, [sp, #8]
    392c:	e3540005 	cmp	r4, #5	; 0x5
    3930:	c59dc008 	ldrgt	ip, [sp, #8]
    3934:	c24cc004 	subgt	ip, ip, #4	; 0x4
    3938:	c58dc008 	strgt	ip, [sp, #8]
    393c:	e59d1008 	ldr	r1, [sp, #8]
    3940:	d3a00001 	movle	r0, #1	; 0x1
    3944:	c3a00000 	movgt	r0, #0	; 0x0
    3948:	e3510005 	cmp	r1, #5	; 0x5
    394c:	979ff101 	ldrls	pc, [pc, r1, lsl #2]
    3950:	ea0000e8 	b	3cf8 <_dtoa_r+0xb90>
    3954:	00003df0 	.word	0x00003df0
    3958:	00003df0 	.word	0x00003df0
    395c:	00003de4 	.word	0x00003de4
    3960:	00003dd8 	.word	0x00003dd8
    3964:	00003d9c 	.word	0x00003d9c
    3968:	00003d5c 	.word	0x00003d5c
    396c:	e59d0034 	ldr	r0, [sp, #52]
    3970:	e3500000 	cmp	r0, #0	; 0x0
    3974:	1a000098 	bne	3bdc <_dtoa_r+0xa74>
    3978:	e59d7020 	ldr	r7, [sp, #32]
    397c:	e59d5024 	ldr	r5, [sp, #36]
    3980:	e1a06000 	mov	r6, r0
    3984:	e59d0038 	ldr	r0, [sp, #56]
    3988:	e3570000 	cmp	r7, #0	; 0x0
    398c:	c3500000 	cmpgt	r0, #0	; 0x0
    3990:	da000008 	ble	39b8 <_dtoa_r+0x850>
    3994:	e1a03000 	mov	r3, r0
    3998:	e59d1020 	ldr	r1, [sp, #32]
    399c:	e1530007 	cmp	r3, r7
    39a0:	a1a03007 	movge	r3, r7
    39a4:	e0630000 	rsb	r0, r3, r0
    39a8:	e0631001 	rsb	r1, r3, r1
    39ac:	e58d0038 	str	r0, [sp, #56]
    39b0:	e58d1020 	str	r1, [sp, #32]
    39b4:	e0637007 	rsb	r7, r3, r7
    39b8:	e59d2024 	ldr	r2, [sp, #36]
    39bc:	e3520000 	cmp	r2, #0	; 0x0
    39c0:	da000015 	ble	3a1c <_dtoa_r+0x8b4>
    39c4:	e59d3034 	ldr	r3, [sp, #52]
    39c8:	e3530000 	cmp	r3, #0	; 0x0
    39cc:	0a0002c5 	beq	44e8 <_dtoa_r+0x1380>
    39d0:	e3550000 	cmp	r5, #0	; 0x0
    39d4:	da00000d 	ble	3a10 <_dtoa_r+0x8a8>
    39d8:	e1a01006 	mov	r1, r6
    39dc:	e1a02005 	mov	r2, r5
    39e0:	e59d000c 	ldr	r0, [sp, #12]
    39e4:	eb000c80 	bl	6bec <__pow5mult>
    39e8:	e1a06000 	mov	r6, r0
    39ec:	e1a01006 	mov	r1, r6
    39f0:	e59d2044 	ldr	r2, [sp, #68]
    39f4:	e59d000c 	ldr	r0, [sp, #12]
    39f8:	eb000bc1 	bl	6904 <__multiply>
    39fc:	e59d1044 	ldr	r1, [sp, #68]
    3a00:	e1a04000 	mov	r4, r0
    3a04:	e59d000c 	ldr	r0, [sp, #12]
    3a08:	eb00098c 	bl	6040 <_Bfree>
    3a0c:	e58d4044 	str	r4, [sp, #68]
    3a10:	e59d4024 	ldr	r4, [sp, #36]
    3a14:	e0542005 	subs	r2, r4, r5
    3a18:	1a0002b8 	bne	4500 <_dtoa_r+0x1398>
    3a1c:	e59d000c 	ldr	r0, [sp, #12]
    3a20:	e3a01001 	mov	r1, #1	; 0x1
    3a24:	eb000c31 	bl	6af0 <__i2b>
    3a28:	e59dc03c 	ldr	ip, [sp, #60]
    3a2c:	e35c0000 	cmp	ip, #0	; 0x0
    3a30:	e1a05000 	mov	r5, r0
    3a34:	da000004 	ble	3a4c <_dtoa_r+0x8e4>
    3a38:	e1a01000 	mov	r1, r0
    3a3c:	e1a0200c 	mov	r2, ip
    3a40:	e59d000c 	ldr	r0, [sp, #12]
    3a44:	eb000c68 	bl	6bec <__pow5mult>
    3a48:	e1a05000 	mov	r5, r0
    3a4c:	e59d0008 	ldr	r0, [sp, #8]
    3a50:	e3500001 	cmp	r0, #1	; 0x1
    3a54:	da000094 	ble	3cac <_dtoa_r+0xb44>
    3a58:	e3a04000 	mov	r4, #0	; 0x0
    3a5c:	e59d303c 	ldr	r3, [sp, #60]
    3a60:	e3530000 	cmp	r3, #0	; 0x0
    3a64:	02833001 	addeq	r3, r3, #1	; 0x1
    3a68:	1a000231 	bne	4334 <_dtoa_r+0x11cc>
    3a6c:	e59dc038 	ldr	ip, [sp, #56]
    3a70:	e083300c 	add	r3, r3, ip
    3a74:	e213301f 	ands	r3, r3, #31	; 0x1f
    3a78:	03a0301c 	moveq	r3, #28	; 0x1c
    3a7c:	1a0001ba 	bne	416c <_dtoa_r+0x1004>
    3a80:	e59d2038 	ldr	r2, [sp, #56]
    3a84:	e59dc020 	ldr	ip, [sp, #32]
    3a88:	e0822003 	add	r2, r2, r3
    3a8c:	e08cc003 	add	ip, ip, r3
    3a90:	e58d2038 	str	r2, [sp, #56]
    3a94:	e58dc020 	str	ip, [sp, #32]
    3a98:	e0877003 	add	r7, r7, r3
    3a9c:	e59d0020 	ldr	r0, [sp, #32]
    3aa0:	e3500000 	cmp	r0, #0	; 0x0
    3aa4:	da000004 	ble	3abc <_dtoa_r+0x954>
    3aa8:	e1a02000 	mov	r2, r0
    3aac:	e59d1044 	ldr	r1, [sp, #68]
    3ab0:	e59d000c 	ldr	r0, [sp, #12]
    3ab4:	eb000b49 	bl	67e0 <__lshift>
    3ab8:	e58d0044 	str	r0, [sp, #68]
    3abc:	e59d1038 	ldr	r1, [sp, #56]
    3ac0:	e3510000 	cmp	r1, #0	; 0x0
    3ac4:	da000004 	ble	3adc <_dtoa_r+0x974>
    3ac8:	e1a01005 	mov	r1, r5
    3acc:	e59d2038 	ldr	r2, [sp, #56]
    3ad0:	e59d000c 	ldr	r0, [sp, #12]
    3ad4:	eb000b41 	bl	67e0 <__lshift>
    3ad8:	e1a05000 	mov	r5, r0
    3adc:	e59d2030 	ldr	r2, [sp, #48]
    3ae0:	e3520000 	cmp	r2, #0	; 0x0
    3ae4:	1a000218 	bne	434c <_dtoa_r+0x11e4>
    3ae8:	e59d2054 	ldr	r2, [sp, #84]
    3aec:	e59dc008 	ldr	ip, [sp, #8]
    3af0:	e3520000 	cmp	r2, #0	; 0x0
    3af4:	c3a03000 	movgt	r3, #0	; 0x0
    3af8:	d3a03001 	movle	r3, #1	; 0x1
    3afc:	e35c0002 	cmp	ip, #2	; 0x2
    3b00:	d3a03000 	movle	r3, #0	; 0x0
    3b04:	e3530000 	cmp	r3, #0	; 0x0
    3b08:	0a000140 	beq	4010 <_dtoa_r+0xea8>
    3b0c:	e3520000 	cmp	r2, #0	; 0x0
    3b10:	1afffeb8 	bne	35f8 <_dtoa_r+0x490>
    3b14:	e1a03002 	mov	r3, r2
    3b18:	e1a01005 	mov	r1, r5
    3b1c:	e2822005 	add	r2, r2, #5	; 0x5
    3b20:	e59d000c 	ldr	r0, [sp, #12]
    3b24:	eb000bf9 	bl	6b10 <__multadd>
    3b28:	e1a05000 	mov	r5, r0
    3b2c:	e1a01005 	mov	r1, r5
    3b30:	e59d0044 	ldr	r0, [sp, #68]
    3b34:	eb000983 	bl	6148 <__mcmp>
    3b38:	e3500000 	cmp	r0, #0	; 0x0
    3b3c:	dafffead 	ble	35f8 <_dtoa_r+0x490>
    3b40:	e59db010 	ldr	fp, [sp, #16]
    3b44:	e3a03031 	mov	r3, #49	; 0x31
    3b48:	e4cb3001 	strb	r3, [fp], #1
    3b4c:	e59d2048 	ldr	r2, [sp, #72]
    3b50:	e2822001 	add	r2, r2, #1	; 0x1
    3b54:	e58d2048 	str	r2, [sp, #72]
    3b58:	e1a04006 	mov	r4, r6
    3b5c:	e3a09000 	mov	r9, #0	; 0x0
    3b60:	eafffeaa 	b	3610 <_dtoa_r+0x4a8>
    3b64:	e59d0048 	ldr	r0, [sp, #72]
    3b68:	eb0012f9 	bl	8754 <__aeabi_i2d>
    3b6c:	e1a02004 	mov	r2, r4
    3b70:	e1a03005 	mov	r3, r5
    3b74:	eb001451 	bl	8cc0 <__cmpdf2>
    3b78:	e3500000 	cmp	r0, #0	; 0x0
    3b7c:	159d4048 	ldrne	r4, [sp, #72]
    3b80:	12444001 	subne	r4, r4, #1	; 0x1
    3b84:	158d4048 	strne	r4, [sp, #72]
    3b88:	eafffdee 	b	3348 <_dtoa_r+0x1e0>
    3b8c:	e59d4020 	ldr	r4, [sp, #32]
    3b90:	e59dc048 	ldr	ip, [sp, #72]
    3b94:	e3a01000 	mov	r1, #0	; 0x0
    3b98:	e06c4004 	rsb	r4, ip, r4
    3b9c:	e26c0000 	rsb	r0, ip, #0	; 0x0
    3ba0:	e58d4020 	str	r4, [sp, #32]
    3ba4:	e58d0024 	str	r0, [sp, #36]
    3ba8:	e58d103c 	str	r1, [sp, #60]
    3bac:	eafffe0c 	b	33e4 <_dtoa_r+0x27c>
    3bb0:	e51f150c 	ldr	r1, [pc, #-1292]	; 36ac <_dtoa_r+0x544>
    3bb4:	e2812020 	add	r2, r1, #32	; 0x20
    3bb8:	e892000c 	ldm	r2, {r2, r3}
    3bbc:	e28d004c 	add	r0, sp, #76	; 0x4c
    3bc0:	e8900003 	ldm	r0, {r0, r1}
    3bc4:	eb0013b8 	bl	8aac <__aeabi_ddiv>
    3bc8:	e204400f 	and	r4, r4, #15	; 0xf
    3bcc:	e1a0a000 	mov	sl, r0
    3bd0:	e1a0b001 	mov	fp, r1
    3bd4:	e3a08003 	mov	r8, #3	; 0x3
    3bd8:	eafffe27 	b	347c <_dtoa_r+0x314>
    3bdc:	e59d2008 	ldr	r2, [sp, #8]
    3be0:	e3520001 	cmp	r2, #1	; 0x1
    3be4:	da00024a 	ble	4514 <_dtoa_r+0x13ac>
    3be8:	e59dc054 	ldr	ip, [sp, #84]
    3bec:	e59d0024 	ldr	r0, [sp, #36]
    3bf0:	e24c2001 	sub	r2, ip, #1	; 0x1
    3bf4:	e1500002 	cmp	r0, r2
    3bf8:	b59d4024 	ldrlt	r4, [sp, #36]
    3bfc:	b59dc03c 	ldrlt	ip, [sp, #60]
    3c00:	b0643002 	rsblt	r3, r4, r2
    3c04:	a0625000 	rsbge	r5, r2, r0
    3c08:	e59d0054 	ldr	r0, [sp, #84]
    3c0c:	b0844003 	addlt	r4, r4, r3
    3c10:	b08cc003 	addlt	ip, ip, r3
    3c14:	b1a05001 	movlt	r5, r1
    3c18:	b58d4024 	strlt	r4, [sp, #36]
    3c1c:	b58dc03c 	strlt	ip, [sp, #60]
    3c20:	e3500000 	cmp	r0, #0	; 0x0
    3c24:	b59d1020 	ldrlt	r1, [sp, #32]
    3c28:	b59d2054 	ldrlt	r2, [sp, #84]
    3c2c:	a59d7020 	ldrge	r7, [sp, #32]
    3c30:	a1a03000 	movge	r3, r0
    3c34:	b0627001 	rsblt	r7, r2, r1
    3c38:	b3a03000 	movlt	r3, #0	; 0x0
    3c3c:	e59d4038 	ldr	r4, [sp, #56]
    3c40:	e59dc020 	ldr	ip, [sp, #32]
    3c44:	e0844003 	add	r4, r4, r3
    3c48:	e08cc003 	add	ip, ip, r3
    3c4c:	e59d000c 	ldr	r0, [sp, #12]
    3c50:	e3a01001 	mov	r1, #1	; 0x1
    3c54:	e58d4038 	str	r4, [sp, #56]
    3c58:	e58dc020 	str	ip, [sp, #32]
    3c5c:	eb000ba3 	bl	6af0 <__i2b>
    3c60:	e1a06000 	mov	r6, r0
    3c64:	eaffff46 	b	3984 <_dtoa_r+0x81c>
    3c68:	e59d3054 	ldr	r3, [sp, #84]
    3c6c:	e3530000 	cmp	r3, #0	; 0x0
    3c70:	1afffe5e 	bne	35f0 <_dtoa_r+0x488>
    3c74:	e3a02101 	mov	r2, #1073741824	; 0x40000000
    3c78:	e2822705 	add	r2, r2, #1310720	; 0x140000
    3c7c:	e3a03000 	mov	r3, #0	; 0x0
    3c80:	e1a00007 	mov	r0, r7
    3c84:	e1a01008 	mov	r1, r8
    3c88:	eb0012ec 	bl	8840 <__aeabi_dmul>
    3c8c:	e1a0200a 	mov	r2, sl
    3c90:	e1a0300b 	mov	r3, fp
    3c94:	eb001405 	bl	8cb0 <__gedf2>
    3c98:	e3500000 	cmp	r0, #0	; 0x0
    3c9c:	b59d6054 	ldrlt	r6, [sp, #84]
    3ca0:	b1a05006 	movlt	r5, r6
    3ca4:	baffffa5 	blt	3b40 <_dtoa_r+0x9d8>
    3ca8:	eafffe50 	b	35f0 <_dtoa_r+0x488>
    3cac:	e35b0000 	cmp	fp, #0	; 0x0
    3cb0:	1affff68 	bne	3a58 <_dtoa_r+0x8f0>
    3cb4:	e3ca34ff 	bic	r3, sl, #-16777216	; 0xff000000
    3cb8:	e3c3360f 	bic	r3, r3, #15728640	; 0xf00000
    3cbc:	e3530000 	cmp	r3, #0	; 0x0
    3cc0:	1affff64 	bne	3a58 <_dtoa_r+0x8f0>
    3cc4:	e3ca3102 	bic	r3, sl, #-2147483648	; 0x80000000
    3cc8:	e1a03a23 	lsr	r3, r3, #20
    3ccc:	e1a03a03 	lsl	r3, r3, #20
    3cd0:	e3530000 	cmp	r3, #0	; 0x0
    3cd4:	0affff5f 	beq	3a58 <_dtoa_r+0x8f0>
    3cd8:	e59d1020 	ldr	r1, [sp, #32]
    3cdc:	e59d2038 	ldr	r2, [sp, #56]
    3ce0:	e2811001 	add	r1, r1, #1	; 0x1
    3ce4:	e2822001 	add	r2, r2, #1	; 0x1
    3ce8:	e58d1020 	str	r1, [sp, #32]
    3cec:	e58d2038 	str	r2, [sp, #56]
    3cf0:	e3a04001 	mov	r4, #1	; 0x1
    3cf4:	eaffff58 	b	3a5c <_dtoa_r+0x8f4>
    3cf8:	e3e01000 	mvn	r1, #0	; 0x0
    3cfc:	e3a02001 	mov	r2, #1	; 0x1
    3d00:	e58d1054 	str	r1, [sp, #84]
    3d04:	e58d1028 	str	r1, [sp, #40]
    3d08:	e58d2034 	str	r2, [sp, #52]
    3d0c:	e59d400c 	ldr	r4, [sp, #12]
    3d10:	e3560017 	cmp	r6, #23	; 0x17
    3d14:	e3a03000 	mov	r3, #0	; 0x0
    3d18:	e5843044 	str	r3, [r4, #68]
    3d1c:	81a01003 	movhi	r1, r3
    3d20:	83a02004 	movhi	r2, #4	; 0x4
    3d24:	9a000244 	bls	463c <_dtoa_r+0x14d4>
    3d28:	e1a02082 	lsl	r2, r2, #1
    3d2c:	e2823014 	add	r3, r2, #20	; 0x14
    3d30:	e1530006 	cmp	r3, r6
    3d34:	e2811001 	add	r1, r1, #1	; 0x1
    3d38:	9afffffa 	bls	3d28 <_dtoa_r+0xbc0>
    3d3c:	e59d200c 	ldr	r2, [sp, #12]
    3d40:	e59d3054 	ldr	r3, [sp, #84]
    3d44:	e5821044 	str	r1, [r2, #68]
    3d48:	e353000e 	cmp	r3, #14	; 0xe
    3d4c:	83a04000 	movhi	r4, #0	; 0x0
    3d50:	93a04001 	movls	r4, #1	; 0x1
    3d54:	e1a05000 	mov	r5, r0
    3d58:	eafffdb1 	b	3424 <_dtoa_r+0x2bc>
    3d5c:	e3a03001 	mov	r3, #1	; 0x1
    3d60:	e58d3034 	str	r3, [sp, #52]
    3d64:	e59d4048 	ldr	r4, [sp, #72]
    3d68:	e59dc084 	ldr	ip, [sp, #132]
    3d6c:	e084400c 	add	r4, r4, ip
    3d70:	e2846001 	add	r6, r4, #1	; 0x1
    3d74:	e3560000 	cmp	r6, #0	; 0x0
    3d78:	e58d4028 	str	r4, [sp, #40]
    3d7c:	c58d6054 	strgt	r6, [sp, #84]
    3d80:	caffffe1 	bgt	3d0c <_dtoa_r+0xba4>
    3d84:	e356000e 	cmp	r6, #14	; 0xe
    3d88:	83a04000 	movhi	r4, #0	; 0x0
    3d8c:	93a04001 	movls	r4, #1	; 0x1
    3d90:	e1a05000 	mov	r5, r0
    3d94:	e58d6054 	str	r6, [sp, #84]
    3d98:	eafffd9e 	b	3418 <_dtoa_r+0x2b0>
    3d9c:	e3a02001 	mov	r2, #1	; 0x1
    3da0:	e58d2034 	str	r2, [sp, #52]
    3da4:	e59d2084 	ldr	r2, [sp, #132]
    3da8:	e3520000 	cmp	r2, #0	; 0x0
    3dac:	c1a06002 	movgt	r6, r2
    3db0:	c58d2054 	strgt	r2, [sp, #84]
    3db4:	c58d6028 	strgt	r6, [sp, #40]
    3db8:	caffffd3 	bgt	3d0c <_dtoa_r+0xba4>
    3dbc:	e3a03001 	mov	r3, #1	; 0x1
    3dc0:	e58d3084 	str	r3, [sp, #132]
    3dc4:	e1a05000 	mov	r5, r0
    3dc8:	e58d3054 	str	r3, [sp, #84]
    3dcc:	e58d3028 	str	r3, [sp, #40]
    3dd0:	e1a04003 	mov	r4, r3
    3dd4:	eafffd8f 	b	3418 <_dtoa_r+0x2b0>
    3dd8:	e3a03000 	mov	r3, #0	; 0x0
    3ddc:	e58d3034 	str	r3, [sp, #52]
    3de0:	eaffffdf 	b	3d64 <_dtoa_r+0xbfc>
    3de4:	e3a01000 	mov	r1, #0	; 0x0
    3de8:	e58d1034 	str	r1, [sp, #52]
    3dec:	eaffffec 	b	3da4 <_dtoa_r+0xc3c>
    3df0:	e1a05000 	mov	r5, r0
    3df4:	eafffd80 	b	33fc <_dtoa_r+0x294>
    3df8:	e1a0b002 	mov	fp, r2
    3dfc:	e55b3001 	ldrb	r3, [fp, #-1]
    3e00:	e3530039 	cmp	r3, #57	; 0x39
    3e04:	e24b2001 	sub	r2, fp, #1	; 0x1
    3e08:	1a000009 	bne	3e34 <_dtoa_r+0xccc>
    3e0c:	e59d0010 	ldr	r0, [sp, #16]
    3e10:	e1520000 	cmp	r2, r0
    3e14:	1afffff7 	bne	3df8 <_dtoa_r+0xc90>
    3e18:	e59d1048 	ldr	r1, [sp, #72]
    3e1c:	e59d2010 	ldr	r2, [sp, #16]
    3e20:	e3a03030 	mov	r3, #48	; 0x30
    3e24:	e2811001 	add	r1, r1, #1	; 0x1
    3e28:	e58d1048 	str	r1, [sp, #72]
    3e2c:	e5c23000 	strb	r3, [r2]
    3e30:	e59d2010 	ldr	r2, [sp, #16]
    3e34:	e2833001 	add	r3, r3, #1	; 0x1
    3e38:	e5c23000 	strb	r3, [r2]
    3e3c:	e59d4048 	ldr	r4, [sp, #72]
    3e40:	e58d402c 	str	r4, [sp, #44]
    3e44:	eafffdfe 	b	3644 <_dtoa_r+0x4dc>
    3e48:	e59dc048 	ldr	ip, [sp, #72]
    3e4c:	e59d9054 	ldr	r9, [sp, #84]
    3e50:	e58dc02c 	str	ip, [sp, #44]
    3e54:	eafffdc0 	b	355c <_dtoa_r+0x3f4>
    3e58:	e59d0034 	ldr	r0, [sp, #52]
    3e5c:	e3500000 	cmp	r0, #0	; 0x0
    3e60:	0a0000e2 	beq	41f0 <_dtoa_r+0x1088>
    3e64:	e2493001 	sub	r3, r9, #1	; 0x1
    3e68:	e51f17c8 	ldr	r1, [pc, #-1992]	; 36a8 <_dtoa_r+0x540>
    3e6c:	e1a03183 	lsl	r3, r3, #3
    3e70:	e0811003 	add	r1, r1, r3
    3e74:	e3a005ff 	mov	r0, #1069547520	; 0x3fc00000
    3e78:	e891000c 	ldm	r1, {r2, r3}
    3e7c:	e2800602 	add	r0, r0, #2097152	; 0x200000
    3e80:	e3a01000 	mov	r1, #0	; 0x0
    3e84:	eb001308 	bl	8aac <__aeabi_ddiv>
    3e88:	e1a02004 	mov	r2, r4
    3e8c:	e1a03005 	mov	r3, r5
    3e90:	eb00116c 	bl	8448 <__aeabi_dsub>
    3e94:	e1a07000 	mov	r7, r0
    3e98:	e1a08001 	mov	r8, r1
    3e9c:	e1a0000a 	mov	r0, sl
    3ea0:	e1a0100b 	mov	r1, fp
    3ea4:	eb0013cb 	bl	8dd8 <__aeabi_d2iz>
    3ea8:	e1a04000 	mov	r4, r0
    3eac:	eb001228 	bl	8754 <__aeabi_i2d>
    3eb0:	e1a02000 	mov	r2, r0
    3eb4:	e1a03001 	mov	r3, r1
    3eb8:	e1a0000a 	mov	r0, sl
    3ebc:	e1a0100b 	mov	r1, fp
    3ec0:	eb001160 	bl	8448 <__aeabi_dsub>
    3ec4:	e59db010 	ldr	fp, [sp, #16]
    3ec8:	e2844030 	add	r4, r4, #48	; 0x30
    3ecc:	e4cb4001 	strb	r4, [fp], #1
    3ed0:	e1a02007 	mov	r2, r7
    3ed4:	e1a03008 	mov	r3, r8
    3ed8:	e1a05000 	mov	r5, r0
    3edc:	e1a06001 	mov	r6, r1
    3ee0:	eb001374 	bl	8cb8 <__ledf2>
    3ee4:	e3500000 	cmp	r0, #0	; 0x0
    3ee8:	bafffdd5 	blt	3644 <_dtoa_r+0x4dc>
    3eec:	e3a005ff 	mov	r0, #1069547520	; 0x3fc00000
    3ef0:	e1a02005 	mov	r2, r5
    3ef4:	e1a03006 	mov	r3, r6
    3ef8:	e2800603 	add	r0, r0, #3145728	; 0x300000
    3efc:	e3a01000 	mov	r1, #0	; 0x0
    3f00:	eb001150 	bl	8448 <__aeabi_dsub>
    3f04:	e1a02007 	mov	r2, r7
    3f08:	e1a03008 	mov	r3, r8
    3f0c:	eb001369 	bl	8cb8 <__ledf2>
    3f10:	e3500000 	cmp	r0, #0	; 0x0
    3f14:	ba000036 	blt	3ff4 <_dtoa_r+0xe8c>
    3f18:	e3590001 	cmp	r9, #1	; 0x1
    3f1c:	c3a0a001 	movgt	sl, #1	; 0x1
    3f20:	ca000002 	bgt	3f30 <_dtoa_r+0xdc8>
    3f24:	eafffe04 	b	373c <_dtoa_r+0x5d4>
    3f28:	e159000a 	cmp	r9, sl
    3f2c:	dafffe02 	ble	373c <_dtoa_r+0x5d4>
    3f30:	e3a02101 	mov	r2, #1073741824	; 0x40000000
    3f34:	e1a00007 	mov	r0, r7
    3f38:	e1a01008 	mov	r1, r8
    3f3c:	e2822709 	add	r2, r2, #2359296	; 0x240000
    3f40:	e3a03000 	mov	r3, #0	; 0x0
    3f44:	eb00123d 	bl	8840 <__aeabi_dmul>
    3f48:	e3a02101 	mov	r2, #1073741824	; 0x40000000
    3f4c:	e2822709 	add	r2, r2, #2359296	; 0x240000
    3f50:	e3a03000 	mov	r3, #0	; 0x0
    3f54:	e1a07000 	mov	r7, r0
    3f58:	e1a08001 	mov	r8, r1
    3f5c:	e1a00005 	mov	r0, r5
    3f60:	e1a01006 	mov	r1, r6
    3f64:	eb001235 	bl	8840 <__aeabi_dmul>
    3f68:	e1a06001 	mov	r6, r1
    3f6c:	e1a05000 	mov	r5, r0
    3f70:	eb001398 	bl	8dd8 <__aeabi_d2iz>
    3f74:	e1a04000 	mov	r4, r0
    3f78:	eb0011f5 	bl	8754 <__aeabi_i2d>
    3f7c:	e1a02000 	mov	r2, r0
    3f80:	e1a03001 	mov	r3, r1
    3f84:	e1a00005 	mov	r0, r5
    3f88:	e1a01006 	mov	r1, r6
    3f8c:	eb00112d 	bl	8448 <__aeabi_dsub>
    3f90:	e1a06001 	mov	r6, r1
    3f94:	e59d1010 	ldr	r1, [sp, #16]
    3f98:	e1a05000 	mov	r5, r0
    3f9c:	e2844030 	add	r4, r4, #48	; 0x30
    3fa0:	e7c1400a 	strb	r4, [r1, sl]
    3fa4:	e1a02007 	mov	r2, r7
    3fa8:	e1a01006 	mov	r1, r6
    3fac:	e1a03008 	mov	r3, r8
    3fb0:	e1a00005 	mov	r0, r5
    3fb4:	eb00133f 	bl	8cb8 <__ledf2>
    3fb8:	e3500000 	cmp	r0, #0	; 0x0
    3fbc:	e3a005ff 	mov	r0, #1069547520	; 0x3fc00000
    3fc0:	e28aa001 	add	sl, sl, #1	; 0x1
    3fc4:	e1a02005 	mov	r2, r5
    3fc8:	e1a03006 	mov	r3, r6
    3fcc:	e2800603 	add	r0, r0, #3145728	; 0x300000
    3fd0:	e3a01000 	mov	r1, #0	; 0x0
    3fd4:	e28bb001 	add	fp, fp, #1	; 0x1
    3fd8:	bafffd99 	blt	3644 <_dtoa_r+0x4dc>
    3fdc:	eb001119 	bl	8448 <__aeabi_dsub>
    3fe0:	e1a02007 	mov	r2, r7
    3fe4:	e1a03008 	mov	r3, r8
    3fe8:	eb001332 	bl	8cb8 <__ledf2>
    3fec:	e3500000 	cmp	r0, #0	; 0x0
    3ff0:	aaffffcc 	bge	3f28 <_dtoa_r+0xdc0>
    3ff4:	e59d302c 	ldr	r3, [sp, #44]
    3ff8:	e58d3048 	str	r3, [sp, #72]
    3ffc:	eaffff7e 	b	3dfc <_dtoa_r+0xc94>
    4000:	e1a01009 	mov	r1, r9
    4004:	e59d000c 	ldr	r0, [sp, #12]
    4008:	eb00080c 	bl	6040 <_Bfree>
    400c:	eafffd87 	b	3630 <_dtoa_r+0x4c8>
    4010:	e59d3034 	ldr	r3, [sp, #52]
    4014:	e3530000 	cmp	r3, #0	; 0x0
    4018:	0a0000e7 	beq	43bc <_dtoa_r+0x1254>
    401c:	e3570000 	cmp	r7, #0	; 0x0
    4020:	da000004 	ble	4038 <_dtoa_r+0xed0>
    4024:	e1a01006 	mov	r1, r6
    4028:	e1a02007 	mov	r2, r7
    402c:	e59d000c 	ldr	r0, [sp, #12]
    4030:	eb0009ea 	bl	67e0 <__lshift>
    4034:	e1a06000 	mov	r6, r0
    4038:	e3540000 	cmp	r4, #0	; 0x0
    403c:	01a04006 	moveq	r4, r6
    4040:	1a000158 	bne	45a8 <_dtoa_r+0x1440>
    4044:	e20bc001 	and	ip, fp, #1	; 0x1
    4048:	e59db010 	ldr	fp, [sp, #16]
    404c:	e26b0000 	rsb	r0, fp, #0	; 0x0
    4050:	e58dc01c 	str	ip, [sp, #28]
    4054:	e58d0004 	str	r0, [sp, #4]
    4058:	e1a09006 	mov	r9, r6
    405c:	e1a01005 	mov	r1, r5
    4060:	e59d0044 	ldr	r0, [sp, #68]
    4064:	ebfffbc3 	bl	2f78 <quorem>
    4068:	e1a01009 	mov	r1, r9
    406c:	e280a030 	add	sl, r0, #48	; 0x30
    4070:	e59d0044 	ldr	r0, [sp, #68]
    4074:	eb000833 	bl	6148 <__mcmp>
    4078:	e1a01005 	mov	r1, r5
    407c:	e1a08000 	mov	r8, r0
    4080:	e1a02004 	mov	r2, r4
    4084:	e59d000c 	ldr	r0, [sp, #12]
    4088:	eb000973 	bl	665c <__mdiff>
    408c:	e590300c 	ldr	r3, [r0, #12]
    4090:	e3530000 	cmp	r3, #0	; 0x0
    4094:	e1a06000 	mov	r6, r0
    4098:	13a07001 	movne	r7, #1	; 0x1
    409c:	0a00002d 	beq	4158 <_dtoa_r+0xff0>
    40a0:	e1a01006 	mov	r1, r6
    40a4:	e59d000c 	ldr	r0, [sp, #12]
    40a8:	eb0007e4 	bl	6040 <_Bfree>
    40ac:	e59d1008 	ldr	r1, [sp, #8]
    40b0:	e1971001 	orrs	r1, r7, r1
    40b4:	1a000002 	bne	40c4 <_dtoa_r+0xf5c>
    40b8:	e59d201c 	ldr	r2, [sp, #28]
    40bc:	e3520000 	cmp	r2, #0	; 0x0
    40c0:	0a000152 	beq	4610 <_dtoa_r+0x14a8>
    40c4:	e3580000 	cmp	r8, #0	; 0x0
    40c8:	ba00011c 	blt	4540 <_dtoa_r+0x13d8>
    40cc:	e59d3008 	ldr	r3, [sp, #8]
    40d0:	e1983003 	orrs	r3, r8, r3
    40d4:	1a000002 	bne	40e4 <_dtoa_r+0xf7c>
    40d8:	e59dc01c 	ldr	ip, [sp, #28]
    40dc:	e35c0000 	cmp	ip, #0	; 0x0
    40e0:	0a000116 	beq	4540 <_dtoa_r+0x13d8>
    40e4:	e3570000 	cmp	r7, #0	; 0x0
    40e8:	ca000141 	bgt	45f4 <_dtoa_r+0x148c>
    40ec:	e4cba001 	strb	sl, [fp], #1
    40f0:	e59d0004 	ldr	r0, [sp, #4]
    40f4:	e59d1054 	ldr	r1, [sp, #84]
    40f8:	e08b3000 	add	r3, fp, r0
    40fc:	e1530001 	cmp	r3, r1
    4100:	0a0000c3 	beq	4414 <_dtoa_r+0x12ac>
    4104:	e59d1044 	ldr	r1, [sp, #68]
    4108:	e59d000c 	ldr	r0, [sp, #12]
    410c:	e3a0200a 	mov	r2, #10	; 0xa
    4110:	e3a03000 	mov	r3, #0	; 0x0
    4114:	eb000a7d 	bl	6b10 <__multadd>
    4118:	e1590004 	cmp	r9, r4
    411c:	e58d0044 	str	r0, [sp, #68]
    4120:	0a000025 	beq	41bc <_dtoa_r+0x1054>
    4124:	e1a01009 	mov	r1, r9
    4128:	e3a0200a 	mov	r2, #10	; 0xa
    412c:	e3a03000 	mov	r3, #0	; 0x0
    4130:	e59d000c 	ldr	r0, [sp, #12]
    4134:	eb000a75 	bl	6b10 <__multadd>
    4138:	e1a01004 	mov	r1, r4
    413c:	e1a09000 	mov	r9, r0
    4140:	e3a0200a 	mov	r2, #10	; 0xa
    4144:	e59d000c 	ldr	r0, [sp, #12]
    4148:	e3a03000 	mov	r3, #0	; 0x0
    414c:	eb000a6f 	bl	6b10 <__multadd>
    4150:	e1a04000 	mov	r4, r0
    4154:	eaffffc0 	b	405c <_dtoa_r+0xef4>
    4158:	e59d0044 	ldr	r0, [sp, #68]
    415c:	e1a01006 	mov	r1, r6
    4160:	eb0007f8 	bl	6148 <__mcmp>
    4164:	e1a07000 	mov	r7, r0
    4168:	eaffffcc 	b	40a0 <_dtoa_r+0xf38>
    416c:	e2633020 	rsb	r3, r3, #32	; 0x20
    4170:	e3530004 	cmp	r3, #4	; 0x4
    4174:	da000136 	ble	4654 <_dtoa_r+0x14ec>
    4178:	e59d0038 	ldr	r0, [sp, #56]
    417c:	e59d1020 	ldr	r1, [sp, #32]
    4180:	e2433004 	sub	r3, r3, #4	; 0x4
    4184:	e0800003 	add	r0, r0, r3
    4188:	e0811003 	add	r1, r1, r3
    418c:	e58d0038 	str	r0, [sp, #56]
    4190:	e58d1020 	str	r1, [sp, #32]
    4194:	e0877003 	add	r7, r7, r3
    4198:	eafffe3f 	b	3a9c <_dtoa_r+0x934>
    419c:	e59d0048 	ldr	r0, [sp, #72]
    41a0:	e2604000 	rsb	r4, r0, #0	; 0x0
    41a4:	e3540000 	cmp	r4, #0	; 0x0
    41a8:	1a0000b2 	bne	4478 <_dtoa_r+0x1310>
    41ac:	e28da04c 	add	sl, sp, #76	; 0x4c
    41b0:	e89a0c00 	ldm	sl, {sl, fp}
    41b4:	e3a08002 	mov	r8, #2	; 0x2
    41b8:	eafffcc5 	b	34d4 <_dtoa_r+0x36c>
    41bc:	e1a01009 	mov	r1, r9
    41c0:	e59d000c 	ldr	r0, [sp, #12]
    41c4:	e3a0200a 	mov	r2, #10	; 0xa
    41c8:	e3a03000 	mov	r3, #0	; 0x0
    41cc:	eb000a4f 	bl	6b10 <__multadd>
    41d0:	e1a09000 	mov	r9, r0
    41d4:	e1a04000 	mov	r4, r0
    41d8:	eaffff9f 	b	405c <_dtoa_r+0xef4>
    41dc:	e59d102c 	ldr	r1, [sp, #44]
    41e0:	e1a06009 	mov	r6, r9
    41e4:	e58d1048 	str	r1, [sp, #72]
    41e8:	e1a05009 	mov	r5, r9
    41ec:	eafffe53 	b	3b40 <_dtoa_r+0x9d8>
    41f0:	e2498001 	sub	r8, r9, #1	; 0x1
    41f4:	e51fcb54 	ldr	ip, [pc, #-2900]	; 36a8 <_dtoa_r+0x540>
    41f8:	e1a03188 	lsl	r3, r8, #3
    41fc:	e08cc003 	add	ip, ip, r3
    4200:	e1a02004 	mov	r2, r4
    4204:	e1a03001 	mov	r3, r1
    4208:	e89c0003 	ldm	ip, {r0, r1}
    420c:	eb00118b 	bl	8840 <__aeabi_dmul>
    4210:	e58d0014 	str	r0, [sp, #20]
    4214:	e58d1018 	str	r1, [sp, #24]
    4218:	e1a0100b 	mov	r1, fp
    421c:	e1a0000a 	mov	r0, sl
    4220:	eb0012ec 	bl	8dd8 <__aeabi_d2iz>
    4224:	e1a04000 	mov	r4, r0
    4228:	eb001149 	bl	8754 <__aeabi_i2d>
    422c:	e1a02000 	mov	r2, r0
    4230:	e1a03001 	mov	r3, r1
    4234:	e1a0000a 	mov	r0, sl
    4238:	e1a0100b 	mov	r1, fp
    423c:	eb001081 	bl	8448 <__aeabi_dsub>
    4240:	e59db010 	ldr	fp, [sp, #16]
    4244:	e2844030 	add	r4, r4, #48	; 0x30
    4248:	e3590001 	cmp	r9, #1	; 0x1
    424c:	e1a05000 	mov	r5, r0
    4250:	e1a06001 	mov	r6, r1
    4254:	e4cb4001 	strb	r4, [fp], #1
    4258:	13a07001 	movne	r7, #1	; 0x1
    425c:	0a000018 	beq	42c4 <_dtoa_r+0x115c>
    4260:	e3a02101 	mov	r2, #1073741824	; 0x40000000
    4264:	e2822709 	add	r2, r2, #2359296	; 0x240000
    4268:	e3a03000 	mov	r3, #0	; 0x0
    426c:	e1a00005 	mov	r0, r5
    4270:	e1a01006 	mov	r1, r6
    4274:	eb001171 	bl	8840 <__aeabi_dmul>
    4278:	e1a06001 	mov	r6, r1
    427c:	e1a05000 	mov	r5, r0
    4280:	eb0012d4 	bl	8dd8 <__aeabi_d2iz>
    4284:	e1a04000 	mov	r4, r0
    4288:	eb001131 	bl	8754 <__aeabi_i2d>
    428c:	e1a02000 	mov	r2, r0
    4290:	e1a03001 	mov	r3, r1
    4294:	e1a00005 	mov	r0, r5
    4298:	e1a01006 	mov	r1, r6
    429c:	eb001069 	bl	8448 <__aeabi_dsub>
    42a0:	e59d2010 	ldr	r2, [sp, #16]
    42a4:	e2844030 	add	r4, r4, #48	; 0x30
    42a8:	e7c24007 	strb	r4, [r2, r7]
    42ac:	e2877001 	add	r7, r7, #1	; 0x1
    42b0:	e1590007 	cmp	r9, r7
    42b4:	e1a05000 	mov	r5, r0
    42b8:	e1a06001 	mov	r6, r1
    42bc:	1affffe7 	bne	4260 <_dtoa_r+0x10f8>
    42c0:	e08bb008 	add	fp, fp, r8
    42c4:	e3a025ff 	mov	r2, #1069547520	; 0x3fc00000
    42c8:	e2822602 	add	r2, r2, #2097152	; 0x200000
    42cc:	e3a03000 	mov	r3, #0	; 0x0
    42d0:	e28d0014 	add	r0, sp, #20	; 0x14
    42d4:	e8900003 	ldm	r0, {r0, r1}
    42d8:	eb00105b 	bl	844c <__adddf3>
    42dc:	e1a02005 	mov	r2, r5
    42e0:	e1a03006 	mov	r3, r6
    42e4:	eb001273 	bl	8cb8 <__ledf2>
    42e8:	e3500000 	cmp	r0, #0	; 0x0
    42ec:	baffff40 	blt	3ff4 <_dtoa_r+0xe8c>
    42f0:	e3a005ff 	mov	r0, #1069547520	; 0x3fc00000
    42f4:	e28d2014 	add	r2, sp, #20	; 0x14
    42f8:	e892000c 	ldm	r2, {r2, r3}
    42fc:	e2800602 	add	r0, r0, #2097152	; 0x200000
    4300:	e3a01000 	mov	r1, #0	; 0x0
    4304:	eb00104f 	bl	8448 <__aeabi_dsub>
    4308:	e1a02005 	mov	r2, r5
    430c:	e1a03006 	mov	r3, r6
    4310:	eb001266 	bl	8cb0 <__gedf2>
    4314:	e3500000 	cmp	r0, #0	; 0x0
    4318:	dafffd07 	ble	373c <_dtoa_r+0x5d4>
    431c:	e1a0200b 	mov	r2, fp
    4320:	e1a0b002 	mov	fp, r2
    4324:	e5723001 	ldrb	r3, [r2, #-1]!
    4328:	e3530030 	cmp	r3, #48	; 0x30
    432c:	0afffffb 	beq	4320 <_dtoa_r+0x11b8>
    4330:	eafffcc3 	b	3644 <_dtoa_r+0x4dc>
    4334:	e5953010 	ldr	r3, [r5, #16]
    4338:	e2833004 	add	r3, r3, #4	; 0x4
    433c:	e7950103 	ldr	r0, [r5, r3, lsl #2]
    4340:	eb000745 	bl	605c <__hi0bits>
    4344:	e2603020 	rsb	r3, r0, #32	; 0x20
    4348:	eafffdc7 	b	3a6c <_dtoa_r+0x904>
    434c:	e59d0044 	ldr	r0, [sp, #68]
    4350:	e1a01005 	mov	r1, r5
    4354:	eb00077b 	bl	6148 <__mcmp>
    4358:	e3500000 	cmp	r0, #0	; 0x0
    435c:	aafffde1 	bge	3ae8 <_dtoa_r+0x980>
    4360:	e3a03000 	mov	r3, #0	; 0x0
    4364:	e59d1044 	ldr	r1, [sp, #68]
    4368:	e59d000c 	ldr	r0, [sp, #12]
    436c:	e3a0200a 	mov	r2, #10	; 0xa
    4370:	eb0009e6 	bl	6b10 <__multadd>
    4374:	e59d3034 	ldr	r3, [sp, #52]
    4378:	e59dc048 	ldr	ip, [sp, #72]
    437c:	e3530000 	cmp	r3, #0	; 0x0
    4380:	e58d0044 	str	r0, [sp, #68]
    4384:	059d0028 	ldreq	r0, [sp, #40]
    4388:	e24cc001 	sub	ip, ip, #1	; 0x1
    438c:	e58dc048 	str	ip, [sp, #72]
    4390:	058d0054 	streq	r0, [sp, #84]
    4394:	0afffdd3 	beq	3ae8 <_dtoa_r+0x980>
    4398:	e1a01006 	mov	r1, r6
    439c:	e59d000c 	ldr	r0, [sp, #12]
    43a0:	e3a0200a 	mov	r2, #10	; 0xa
    43a4:	e3a03000 	mov	r3, #0	; 0x0
    43a8:	eb0009d8 	bl	6b10 <__multadd>
    43ac:	e59d1028 	ldr	r1, [sp, #40]
    43b0:	e1a06000 	mov	r6, r0
    43b4:	e58d1054 	str	r1, [sp, #84]
    43b8:	eafffdca 	b	3ae8 <_dtoa_r+0x980>
    43bc:	e59d4034 	ldr	r4, [sp, #52]
    43c0:	e59db010 	ldr	fp, [sp, #16]
    43c4:	ea000001 	b	43d0 <_dtoa_r+0x1268>
    43c8:	eb0009d0 	bl	6b10 <__multadd>
    43cc:	e58d0044 	str	r0, [sp, #68]
    43d0:	e1a01005 	mov	r1, r5
    43d4:	e59d0044 	ldr	r0, [sp, #68]
    43d8:	ebfffae6 	bl	2f78 <quorem>
    43dc:	e59d2010 	ldr	r2, [sp, #16]
    43e0:	e280a030 	add	sl, r0, #48	; 0x30
    43e4:	e7c2a004 	strb	sl, [r2, r4]
    43e8:	e59dc054 	ldr	ip, [sp, #84]
    43ec:	e2844001 	add	r4, r4, #1	; 0x1
    43f0:	e15c0004 	cmp	ip, r4
    43f4:	e59d1044 	ldr	r1, [sp, #68]
    43f8:	e59d000c 	ldr	r0, [sp, #12]
    43fc:	e3a0200a 	mov	r2, #10	; 0xa
    4400:	e3a03000 	mov	r3, #0	; 0x0
    4404:	e28bb001 	add	fp, fp, #1	; 0x1
    4408:	caffffee 	bgt	43c8 <_dtoa_r+0x1260>
    440c:	e1a04006 	mov	r4, r6
    4410:	e3a09000 	mov	r9, #0	; 0x0
    4414:	e59d1044 	ldr	r1, [sp, #68]
    4418:	e3a02001 	mov	r2, #1	; 0x1
    441c:	e59d000c 	ldr	r0, [sp, #12]
    4420:	eb0008ee 	bl	67e0 <__lshift>
    4424:	e1a01005 	mov	r1, r5
    4428:	e58d0044 	str	r0, [sp, #68]
    442c:	eb000745 	bl	6148 <__mcmp>
    4430:	e3500000 	cmp	r0, #0	; 0x0
    4434:	ca000001 	bgt	4440 <_dtoa_r+0x12d8>
    4438:	ea000051 	b	4584 <_dtoa_r+0x141c>
    443c:	e1a0b002 	mov	fp, r2
    4440:	e55b3001 	ldrb	r3, [fp, #-1]
    4444:	e3530039 	cmp	r3, #57	; 0x39
    4448:	e24b2001 	sub	r2, fp, #1	; 0x1
    444c:	1a000065 	bne	45e8 <_dtoa_r+0x1480>
    4450:	e59d0010 	ldr	r0, [sp, #16]
    4454:	e1520000 	cmp	r2, r0
    4458:	1afffff7 	bne	443c <_dtoa_r+0x12d4>
    445c:	e59d1010 	ldr	r1, [sp, #16]
    4460:	e3a03031 	mov	r3, #49	; 0x31
    4464:	e5c13000 	strb	r3, [r1]
    4468:	e59d2048 	ldr	r2, [sp, #72]
    446c:	e2822001 	add	r2, r2, #1	; 0x1
    4470:	e58d2048 	str	r2, [sp, #72]
    4474:	eafffc65 	b	3610 <_dtoa_r+0x4a8>
    4478:	e204300f 	and	r3, r4, #15	; 0xf
    447c:	e51f1ddc 	ldr	r1, [pc, #-3548]	; 36a8 <_dtoa_r+0x540>
    4480:	e1a03183 	lsl	r3, r3, #3
    4484:	e0811003 	add	r1, r1, r3
    4488:	e891000c 	ldm	r1, {r2, r3}
    448c:	e28d004c 	add	r0, sp, #76	; 0x4c
    4490:	e8900003 	ldm	r0, {r0, r1}
    4494:	eb0010e9 	bl	8840 <__aeabi_dmul>
    4498:	e1b04244 	asrs	r4, r4, #4
    449c:	e1a0a000 	mov	sl, r0
    44a0:	e1a0b001 	mov	fp, r1
    44a4:	03a08002 	moveq	r8, #2	; 0x2
    44a8:	0afffc09 	beq	34d4 <_dtoa_r+0x36c>
    44ac:	e51f5e08 	ldr	r5, [pc, #-3592]	; 36ac <_dtoa_r+0x544>
    44b0:	e3a08002 	mov	r8, #2	; 0x2
    44b4:	e3140001 	tst	r4, #1	; 0x1
    44b8:	e1a0000a 	mov	r0, sl
    44bc:	e1a0100b 	mov	r1, fp
    44c0:	0a000004 	beq	44d8 <_dtoa_r+0x1370>
    44c4:	e895000c 	ldm	r5, {r2, r3}
    44c8:	eb0010dc 	bl	8840 <__aeabi_dmul>
    44cc:	e2888001 	add	r8, r8, #1	; 0x1
    44d0:	e1a0a000 	mov	sl, r0
    44d4:	e1a0b001 	mov	fp, r1
    44d8:	e1b040c4 	asrs	r4, r4, #1
    44dc:	e2855008 	add	r5, r5, #8	; 0x8
    44e0:	1afffff3 	bne	44b4 <_dtoa_r+0x134c>
    44e4:	eafffbfa 	b	34d4 <_dtoa_r+0x36c>
    44e8:	e59d1044 	ldr	r1, [sp, #68]
    44ec:	e59d2024 	ldr	r2, [sp, #36]
    44f0:	e59d000c 	ldr	r0, [sp, #12]
    44f4:	eb0009bc 	bl	6bec <__pow5mult>
    44f8:	e58d0044 	str	r0, [sp, #68]
    44fc:	eafffd46 	b	3a1c <_dtoa_r+0x8b4>
    4500:	e59d1044 	ldr	r1, [sp, #68]
    4504:	e59d000c 	ldr	r0, [sp, #12]
    4508:	eb0009b7 	bl	6bec <__pow5mult>
    450c:	e58d0044 	str	r0, [sp, #68]
    4510:	eafffd41 	b	3a1c <_dtoa_r+0x8b4>
    4514:	e59d4040 	ldr	r4, [sp, #64]
    4518:	e3540000 	cmp	r4, #0	; 0x0
    451c:	059d305c 	ldreq	r3, [sp, #92]
    4520:	12833e43 	addne	r3, r3, #1072	; 0x430
    4524:	12833003 	addne	r3, r3, #3	; 0x3
    4528:	159d7020 	ldrne	r7, [sp, #32]
    452c:	159d5024 	ldrne	r5, [sp, #36]
    4530:	02633036 	rsbeq	r3, r3, #54	; 0x36
    4534:	059d7020 	ldreq	r7, [sp, #32]
    4538:	059d5024 	ldreq	r5, [sp, #36]
    453c:	eafffdbe 	b	3c3c <_dtoa_r+0xad4>
    4540:	e3570000 	cmp	r7, #0	; 0x0
    4544:	e1a0600a 	mov	r6, sl
    4548:	da00000b 	ble	457c <_dtoa_r+0x1414>
    454c:	e59d1044 	ldr	r1, [sp, #68]
    4550:	e3a02001 	mov	r2, #1	; 0x1
    4554:	e59d000c 	ldr	r0, [sp, #12]
    4558:	eb0008a0 	bl	67e0 <__lshift>
    455c:	e1a01005 	mov	r1, r5
    4560:	e58d0044 	str	r0, [sp, #68]
    4564:	eb0006f7 	bl	6148 <__mcmp>
    4568:	e3500000 	cmp	r0, #0	; 0x0
    456c:	da00002d 	ble	4628 <_dtoa_r+0x14c0>
    4570:	e35a0039 	cmp	sl, #57	; 0x39
    4574:	0a000022 	beq	4604 <_dtoa_r+0x149c>
    4578:	e28a6001 	add	r6, sl, #1	; 0x1
    457c:	e4cb6001 	strb	r6, [fp], #1
    4580:	eafffc22 	b	3610 <_dtoa_r+0x4a8>
    4584:	1a000001 	bne	4590 <_dtoa_r+0x1428>
    4588:	e31a0001 	tst	sl, #1	; 0x1
    458c:	1affffab 	bne	4440 <_dtoa_r+0x12d8>
    4590:	e1a0200b 	mov	r2, fp
    4594:	e1a0b002 	mov	fp, r2
    4598:	e5723001 	ldrb	r3, [r2, #-1]!
    459c:	e3530030 	cmp	r3, #48	; 0x30
    45a0:	0afffffb 	beq	4594 <_dtoa_r+0x142c>
    45a4:	eafffc19 	b	3610 <_dtoa_r+0x4a8>
    45a8:	e5961004 	ldr	r1, [r6, #4]
    45ac:	e59d000c 	ldr	r0, [sp, #12]
    45b0:	eb0007c1 	bl	64bc <_Balloc>
    45b4:	e5962010 	ldr	r2, [r6, #16]
    45b8:	e2822002 	add	r2, r2, #2	; 0x2
    45bc:	e1a04000 	mov	r4, r0
    45c0:	e1a02102 	lsl	r2, r2, #2
    45c4:	e286100c 	add	r1, r6, #12	; 0xc
    45c8:	e280000c 	add	r0, r0, #12	; 0xc
    45cc:	ebfff230 	bl	e94 <memcpy>
    45d0:	e1a01004 	mov	r1, r4
    45d4:	e59d000c 	ldr	r0, [sp, #12]
    45d8:	e3a02001 	mov	r2, #1	; 0x1
    45dc:	eb00087f 	bl	67e0 <__lshift>
    45e0:	e1a04000 	mov	r4, r0
    45e4:	eafffe96 	b	4044 <_dtoa_r+0xedc>
    45e8:	e2833001 	add	r3, r3, #1	; 0x1
    45ec:	e5c23000 	strb	r3, [r2]
    45f0:	eafffc06 	b	3610 <_dtoa_r+0x4a8>
    45f4:	e35a0039 	cmp	sl, #57	; 0x39
    45f8:	128a3001 	addne	r3, sl, #1	; 0x1
    45fc:	14cb3001 	strbne	r3, [fp], #1
    4600:	1afffc02 	bne	3610 <_dtoa_r+0x4a8>
    4604:	e3a03039 	mov	r3, #57	; 0x39
    4608:	e4cb3001 	strb	r3, [fp], #1
    460c:	eaffff8b 	b	4440 <_dtoa_r+0x12d8>
    4610:	e35a0039 	cmp	sl, #57	; 0x39
    4614:	0afffffa 	beq	4604 <_dtoa_r+0x149c>
    4618:	e3580000 	cmp	r8, #0	; 0x0
    461c:	c28aa001 	addgt	sl, sl, #1	; 0x1
    4620:	e4cba001 	strb	sl, [fp], #1
    4624:	eafffbf9 	b	3610 <_dtoa_r+0x4a8>
    4628:	1affffd3 	bne	457c <_dtoa_r+0x1414>
    462c:	e31a0001 	tst	sl, #1	; 0x1
    4630:	1affffce 	bne	4570 <_dtoa_r+0x1408>
    4634:	e4cb6001 	strb	r6, [fp], #1
    4638:	eafffbf4 	b	3610 <_dtoa_r+0x4a8>
    463c:	e59dc054 	ldr	ip, [sp, #84]
    4640:	e1a05000 	mov	r5, r0
    4644:	e35c000e 	cmp	ip, #14	; 0xe
    4648:	83a04000 	movhi	r4, #0	; 0x0
    464c:	93a04001 	movls	r4, #1	; 0x1
    4650:	eafffb73 	b	3424 <_dtoa_r+0x2bc>
    4654:	0afffd10 	beq	3a9c <_dtoa_r+0x934>
    4658:	e283301c 	add	r3, r3, #28	; 0x1c
    465c:	eafffd07 	b	3a80 <_dtoa_r+0x918>

00004660 <_fflush_r>:
    4660:	e92d40f0 	push	{r4, r5, r6, r7, lr}
    4664:	e2507000 	subs	r7, r0, #0	; 0x0
    4668:	e1a06001 	mov	r6, r1
    466c:	0a000002 	beq	467c <_fflush_r+0x1c>
    4670:	e5973038 	ldr	r3, [r7, #56]
    4674:	e3530000 	cmp	r3, #0	; 0x0
    4678:	0a000045 	beq	4794 <_fflush_r+0x134>
    467c:	e1d620bc 	ldrh	r2, [r6, #12]
    4680:	e1a03802 	lsl	r3, r2, #16
    4684:	e1a01843 	asr	r1, r3, #16
    4688:	e3110008 	tst	r1, #8	; 0x8
    468c:	1a000022 	bne	471c <_fflush_r+0xbc>
    4690:	e5963004 	ldr	r3, [r6, #4]
    4694:	e3822b02 	orr	r2, r2, #2048	; 0x800
    4698:	e3530000 	cmp	r3, #0	; 0x0
    469c:	e1c620bc 	strh	r2, [r6, #12]
    46a0:	da000044 	ble	47b8 <_fflush_r+0x158>
    46a4:	e596c028 	ldr	ip, [r6, #40]
    46a8:	e35c0000 	cmp	ip, #0	; 0x0
    46ac:	0a000018 	beq	4714 <_fflush_r+0xb4>
    46b0:	e2122a01 	ands	r2, r2, #4096	; 0x1000
    46b4:	15964050 	ldrne	r4, [r6, #80]
    46b8:	0a000042 	beq	47c8 <_fflush_r+0x168>
    46bc:	e1d630bc 	ldrh	r3, [r6, #12]
    46c0:	e3130004 	tst	r3, #4	; 0x4
    46c4:	1a000034 	bne	479c <_fflush_r+0x13c>
    46c8:	e1a00007 	mov	r0, r7
    46cc:	e596101c 	ldr	r1, [r6, #28]
    46d0:	e1a02004 	mov	r2, r4
    46d4:	e3a03000 	mov	r3, #0	; 0x0
    46d8:	e1a0e00f 	mov	lr, pc
    46dc:	e12fff1c 	bx	ip
    46e0:	e1500004 	cmp	r0, r4
    46e4:	1a000025 	bne	4780 <_fflush_r+0x120>
    46e8:	e1d630bc 	ldrh	r3, [r6, #12]
    46ec:	e3c33b02 	bic	r3, r3, #2048	; 0x800
    46f0:	e1c630bc 	strh	r3, [r6, #12]
    46f4:	e1d620bc 	ldrh	r2, [r6, #12]
    46f8:	e5963010 	ldr	r3, [r6, #16]
    46fc:	e3120a01 	tst	r2, #4096	; 0x1000
    4700:	e3a00000 	mov	r0, #0	; 0x0
    4704:	e5863000 	str	r3, [r6]
    4708:	e5860004 	str	r0, [r6, #4]
    470c:	15864050 	strne	r4, [r6, #80]
    4710:	18bd80f0 	popne	{r4, r5, r6, r7, pc}
    4714:	e3a00000 	mov	r0, #0	; 0x0
    4718:	e8bd80f0 	pop	{r4, r5, r6, r7, pc}
    471c:	e5965010 	ldr	r5, [r6, #16]
    4720:	e3550000 	cmp	r5, #0	; 0x0
    4724:	0afffffa 	beq	4714 <_fflush_r+0xb4>
    4728:	e5963000 	ldr	r3, [r6]
    472c:	e3110003 	tst	r1, #3	; 0x3
    4730:	e0654003 	rsb	r4, r5, r3
    4734:	05963014 	ldreq	r3, [r6, #20]
    4738:	13a03000 	movne	r3, #0	; 0x0
    473c:	e3540000 	cmp	r4, #0	; 0x0
    4740:	e5865000 	str	r5, [r6]
    4744:	e5863008 	str	r3, [r6, #8]
    4748:	ca000002 	bgt	4758 <_fflush_r+0xf8>
    474c:	eafffff0 	b	4714 <_fflush_r+0xb4>
    4750:	e3540000 	cmp	r4, #0	; 0x0
    4754:	daffffee 	ble	4714 <_fflush_r+0xb4>
    4758:	e1a02005 	mov	r2, r5
    475c:	e1a03004 	mov	r3, r4
    4760:	e1a00007 	mov	r0, r7
    4764:	e596101c 	ldr	r1, [r6, #28]
    4768:	e1a0e00f 	mov	lr, pc
    476c:	e596f024 	ldr	pc, [r6, #36]
    4770:	e3500000 	cmp	r0, #0	; 0x0
    4774:	e0604004 	rsb	r4, r0, r4
    4778:	e0855000 	add	r5, r5, r0
    477c:	cafffff3 	bgt	4750 <_fflush_r+0xf0>
    4780:	e1d630bc 	ldrh	r3, [r6, #12]
    4784:	e3833040 	orr	r3, r3, #64	; 0x40
    4788:	e1c630bc 	strh	r3, [r6, #12]
    478c:	e3e00000 	mvn	r0, #0	; 0x0
    4790:	e8bd80f0 	pop	{r4, r5, r6, r7, pc}
    4794:	eb000028 	bl	483c <__sinit>
    4798:	eaffffb7 	b	467c <_fflush_r+0x1c>
    479c:	e5963030 	ldr	r3, [r6, #48]
    47a0:	e5962004 	ldr	r2, [r6, #4]
    47a4:	e3530000 	cmp	r3, #0	; 0x0
    47a8:	1596303c 	ldrne	r3, [r6, #60]
    47ac:	e0624004 	rsb	r4, r2, r4
    47b0:	10634004 	rsbne	r4, r3, r4
    47b4:	eaffffc3 	b	46c8 <_fflush_r+0x68>
    47b8:	e596303c 	ldr	r3, [r6, #60]
    47bc:	e3530000 	cmp	r3, #0	; 0x0
    47c0:	caffffb7 	bgt	46a4 <_fflush_r+0x44>
    47c4:	eaffffd2 	b	4714 <_fflush_r+0xb4>
    47c8:	e1a00007 	mov	r0, r7
    47cc:	e596101c 	ldr	r1, [r6, #28]
    47d0:	e3a03001 	mov	r3, #1	; 0x1
    47d4:	e1a0e00f 	mov	lr, pc
    47d8:	e12fff1c 	bx	ip
    47dc:	e3700001 	cmn	r0, #1	; 0x1
    47e0:	e1a04000 	mov	r4, r0
    47e4:	1596c028 	ldrne	ip, [r6, #40]
    47e8:	1affffb3 	bne	46bc <_fflush_r+0x5c>
    47ec:	e5973000 	ldr	r3, [r7]
    47f0:	e353001d 	cmp	r3, #29	; 0x1d
    47f4:	0affffc6 	beq	4714 <_fflush_r+0xb4>
    47f8:	e1d630bc 	ldrh	r3, [r6, #12]
    47fc:	e3833040 	orr	r3, r3, #64	; 0x40
    4800:	e1c630bc 	strh	r3, [r6, #12]
    4804:	e8bd80f0 	pop	{r4, r5, r6, r7, pc}

00004808 <fflush>:
    4808:	e3500000 	cmp	r0, #0	; 0x0
    480c:	0a000003 	beq	4820 <fflush+0x18>
    4810:	e59f3018 	ldr	r3, [pc, #24]	; 4830 <fflush+0x28>
    4814:	e1a01000 	mov	r1, r0
    4818:	e5930000 	ldr	r0, [r3]
    481c:	eaffff8f 	b	4660 <_fflush_r>
    4820:	e59f300c 	ldr	r3, [pc, #12]	; 4834 <fflush+0x2c>
    4824:	e59f100c 	ldr	r1, [pc, #12]	; 4838 <fflush+0x30>
    4828:	e5930000 	ldr	r0, [r3]
    482c:	ea0002a4 	b	52c4 <_fwalk_reent>
    4830:	00200000 	.word	0x00200000
    4834:	00008e70 	.word	0x00008e70
    4838:	00004660 	.word	0x00004660

0000483c <__sinit>:
    483c:	e92d07f0 	push	{r4, r5, r6, r7, r8, r9, sl}
    4840:	e590a038 	ldr	sl, [r0, #56]
    4844:	e35a0000 	cmp	sl, #0	; 0x0
    4848:	e1a09000 	mov	r9, r0
    484c:	1a00003a 	bne	493c <__sinit+0x100>
    4850:	e3a03003 	mov	r3, #3	; 0x3
    4854:	e58932e4 	str	r3, [r9, #740]
    4858:	e59f30e4 	ldr	r3, [pc, #228]	; 4944 <__sinit+0x108>
    485c:	e5992004 	ldr	r2, [r9, #4]
    4860:	e5991008 	ldr	r1, [r9, #8]
    4864:	e589303c 	str	r3, [r9, #60]
    4868:	e3a03004 	mov	r3, #4	; 0x4
    486c:	e590000c 	ldr	r0, [r0, #12]
    4870:	e59f60d0 	ldr	r6, [pc, #208]	; 4948 <__sinit+0x10c>
    4874:	e59f70d0 	ldr	r7, [pc, #208]	; 494c <__sinit+0x110>
    4878:	e59f80d0 	ldr	r8, [pc, #208]	; 4950 <__sinit+0x114>
    487c:	e59f40d0 	ldr	r4, [pc, #208]	; 4954 <__sinit+0x118>
    4880:	e1c230bc 	strh	r3, [r2, #12]
    4884:	e3a03009 	mov	r3, #9	; 0x9
    4888:	e3a05001 	mov	r5, #1	; 0x1
    488c:	e1c130bc 	strh	r3, [r1, #12]
    4890:	e289cfbb 	add	ip, r9, #748	; 0x2ec
    4894:	e3a03012 	mov	r3, #18	; 0x12
    4898:	e5895038 	str	r5, [r9, #56]
    489c:	e582402c 	str	r4, [r2, #44]
    48a0:	e582a000 	str	sl, [r2]
    48a4:	e582a004 	str	sl, [r2, #4]
    48a8:	e582a008 	str	sl, [r2, #8]
    48ac:	e1c2a0be 	strh	sl, [r2, #14]
    48b0:	e582a010 	str	sl, [r2, #16]
    48b4:	e582a014 	str	sl, [r2, #20]
    48b8:	e582a018 	str	sl, [r2, #24]
    48bc:	e582201c 	str	r2, [r2, #28]
    48c0:	e5826020 	str	r6, [r2, #32]
    48c4:	e5827024 	str	r7, [r2, #36]
    48c8:	e589c2e8 	str	ip, [r9, #744]
    48cc:	e581402c 	str	r4, [r1, #44]
    48d0:	e1c150be 	strh	r5, [r1, #14]
    48d4:	e5828028 	str	r8, [r2, #40]
    48d8:	e589a2e0 	str	sl, [r9, #736]
    48dc:	e581a000 	str	sl, [r1]
    48e0:	e581a004 	str	sl, [r1, #4]
    48e4:	e581a008 	str	sl, [r1, #8]
    48e8:	e581a010 	str	sl, [r1, #16]
    48ec:	e581a014 	str	sl, [r1, #20]
    48f0:	e581a018 	str	sl, [r1, #24]
    48f4:	e581101c 	str	r1, [r1, #28]
    48f8:	e5816020 	str	r6, [r1, #32]
    48fc:	e5817024 	str	r7, [r1, #36]
    4900:	e5818028 	str	r8, [r1, #40]
    4904:	e1c030bc 	strh	r3, [r0, #12]
    4908:	e3a03002 	mov	r3, #2	; 0x2
    490c:	e580a000 	str	sl, [r0]
    4910:	e580402c 	str	r4, [r0, #44]
    4914:	e580a018 	str	sl, [r0, #24]
    4918:	e5806020 	str	r6, [r0, #32]
    491c:	e5807024 	str	r7, [r0, #36]
    4920:	e5808028 	str	r8, [r0, #40]
    4924:	e580a004 	str	sl, [r0, #4]
    4928:	e580a008 	str	sl, [r0, #8]
    492c:	e580a010 	str	sl, [r0, #16]
    4930:	e580a014 	str	sl, [r0, #20]
    4934:	e580001c 	str	r0, [r0, #28]
    4938:	e1c030be 	strh	r3, [r0, #14]
    493c:	e8bd07f0 	pop	{r4, r5, r6, r7, r8, r9, sl}
    4940:	e12fff1e 	bx	lr
    4944:	000049a8 	.word	0x000049a8
    4948:	0000740c 	.word	0x0000740c
    494c:	000073b8 	.word	0x000073b8
    4950:	00007384 	.word	0x00007384
    4954:	0000737c 	.word	0x0000737c

00004958 <__sfp_lock_acquire>:
    4958:	e12fff1e 	bx	lr

0000495c <__sfp_lock_release>:
    495c:	e12fff1e 	bx	lr

00004960 <__sinit_lock_acquire>:
    4960:	e12fff1e 	bx	lr

00004964 <__sinit_lock_release>:
    4964:	e12fff1e 	bx	lr

00004968 <__fp_lock>:
    4968:	e3a00000 	mov	r0, #0	; 0x0
    496c:	e12fff1e 	bx	lr

00004970 <__fp_unlock>:
    4970:	e3a00000 	mov	r0, #0	; 0x0
    4974:	e12fff1e 	bx	lr

00004978 <__fp_unlock_all>:
    4978:	e59f3008 	ldr	r3, [pc, #8]	; 4988 <__fp_unlock_all+0x10>
    497c:	e59f1008 	ldr	r1, [pc, #8]	; 498c <__fp_unlock_all+0x14>
    4980:	e5930000 	ldr	r0, [r3]
    4984:	ea000270 	b	534c <_fwalk>
    4988:	00200000 	.word	0x00200000
    498c:	00004970 	.word	0x00004970

00004990 <__fp_lock_all>:
    4990:	e59f3008 	ldr	r3, [pc, #8]	; 49a0 <__fp_lock_all+0x10>
    4994:	e59f1008 	ldr	r1, [pc, #8]	; 49a4 <__fp_lock_all+0x14>
    4998:	e5930000 	ldr	r0, [r3]
    499c:	ea00026a 	b	534c <_fwalk>
    49a0:	00200000 	.word	0x00200000
    49a4:	00004968 	.word	0x00004968

000049a8 <_cleanup_r>:
    49a8:	e59f1000 	ldr	r1, [pc, #0]	; 49b0 <_cleanup_r+0x8>
    49ac:	ea000266 	b	534c <_fwalk>
    49b0:	000080d4 	.word	0x000080d4

000049b4 <_cleanup>:
    49b4:	e59f3008 	ldr	r3, [pc, #8]	; 49c4 <_cleanup+0x10>
    49b8:	e59f1008 	ldr	r1, [pc, #8]	; 49c8 <_cleanup+0x14>
    49bc:	e5930000 	ldr	r0, [r3]
    49c0:	ea000261 	b	534c <_fwalk>
    49c4:	00008e70 	.word	0x00008e70
    49c8:	000080d4 	.word	0x000080d4

000049cc <__sfmoreglue>:
    49cc:	e1a03281 	lsl	r3, r1, #5
    49d0:	e0433181 	sub	r3, r3, r1, lsl #3
    49d4:	e0613003 	rsb	r3, r1, r3
    49d8:	e92d4070 	push	{r4, r5, r6, lr}
    49dc:	e1a06103 	lsl	r6, r3, #2
    49e0:	e1a05001 	mov	r5, r1
    49e4:	e286100c 	add	r1, r6, #12	; 0xc
    49e8:	eb0002fa 	bl	55d8 <_malloc_r>
    49ec:	e2504000 	subs	r4, r0, #0	; 0x0
    49f0:	0a000005 	beq	4a0c <__sfmoreglue+0x40>
    49f4:	e284000c 	add	r0, r4, #12	; 0xc
    49f8:	e3a01000 	mov	r1, #0	; 0x0
    49fc:	e8840022 	stm	r4, {r1, r5}
    4a00:	e5840008 	str	r0, [r4, #8]
    4a04:	e1a02006 	mov	r2, r6
    4a08:	eb000556 	bl	5f68 <memset>
    4a0c:	e1a00004 	mov	r0, r4
    4a10:	e8bd8070 	pop	{r4, r5, r6, pc}

00004a14 <__sfp>:
    4a14:	e59f30c8 	ldr	r3, [pc, #200]	; 4ae4 <__sfp+0xd0>
    4a18:	e92d4030 	push	{r4, r5, lr}
    4a1c:	e5934000 	ldr	r4, [r3]
    4a20:	e5942038 	ldr	r2, [r4, #56]
    4a24:	e3520000 	cmp	r2, #0	; 0x0
    4a28:	e1a05000 	mov	r5, r0
    4a2c:	0a000020 	beq	4ab4 <__sfp+0xa0>
    4a30:	e2844e2e 	add	r4, r4, #736	; 0x2e0
    4a34:	e5943004 	ldr	r3, [r4, #4]
    4a38:	e2532001 	subs	r2, r3, #1	; 0x1
    4a3c:	e5940008 	ldr	r0, [r4, #8]
    4a40:	5a000003 	bpl	4a54 <__sfp+0x40>
    4a44:	ea000015 	b	4aa0 <__sfp+0x8c>
    4a48:	e2522001 	subs	r2, r2, #1	; 0x1
    4a4c:	e280005c 	add	r0, r0, #92	; 0x5c
    4a50:	4a000012 	bmi	4aa0 <__sfp+0x8c>
    4a54:	e1d030fc 	ldrsh	r3, [r0, #12]
    4a58:	e3530000 	cmp	r3, #0	; 0x0
    4a5c:	1afffff9 	bne	4a48 <__sfp+0x34>
    4a60:	e3a03000 	mov	r3, #0	; 0x0
    4a64:	e5803048 	str	r3, [r0, #72]
    4a68:	e5803000 	str	r3, [r0]
    4a6c:	e5803008 	str	r3, [r0, #8]
    4a70:	e5803004 	str	r3, [r0, #4]
    4a74:	e5803010 	str	r3, [r0, #16]
    4a78:	e5803014 	str	r3, [r0, #20]
    4a7c:	e5803018 	str	r3, [r0, #24]
    4a80:	e5803030 	str	r3, [r0, #48]
    4a84:	e5803034 	str	r3, [r0, #52]
    4a88:	e5803044 	str	r3, [r0, #68]
    4a8c:	e3e03000 	mvn	r3, #0	; 0x0
    4a90:	e1c030be 	strh	r3, [r0, #14]
    4a94:	e3a03001 	mov	r3, #1	; 0x1
    4a98:	e1c030bc 	strh	r3, [r0, #12]
    4a9c:	e8bd8030 	pop	{r4, r5, pc}
    4aa0:	e5940000 	ldr	r0, [r4]
    4aa4:	e3500000 	cmp	r0, #0	; 0x0
    4aa8:	0a000004 	beq	4ac0 <__sfp+0xac>
    4aac:	e1a04000 	mov	r4, r0
    4ab0:	eaffffdf 	b	4a34 <__sfp+0x20>
    4ab4:	e1a00004 	mov	r0, r4
    4ab8:	ebffff5f 	bl	483c <__sinit>
    4abc:	eaffffdb 	b	4a30 <__sfp+0x1c>
    4ac0:	e1a00005 	mov	r0, r5
    4ac4:	e3a01004 	mov	r1, #4	; 0x4
    4ac8:	ebffffbf 	bl	49cc <__sfmoreglue>
    4acc:	e3500000 	cmp	r0, #0	; 0x0
    4ad0:	e5840000 	str	r0, [r4]
    4ad4:	1afffff4 	bne	4aac <__sfp+0x98>
    4ad8:	e3a0300c 	mov	r3, #12	; 0xc
    4adc:	e5853000 	str	r3, [r5]
    4ae0:	e8bd8030 	pop	{r4, r5, pc}
    4ae4:	00008e70 	.word	0x00008e70

00004ae8 <_malloc_trim_r>:
    4ae8:	e92d40f0 	push	{r4, r5, r6, r7, lr}
    4aec:	e59f70e0 	ldr	r7, [pc, #224]	; 4bd4 <_malloc_trim_r+0xec>
    4af0:	e1a04001 	mov	r4, r1
    4af4:	e1a06000 	mov	r6, r0
    4af8:	eb00054e 	bl	6038 <__malloc_lock>
    4afc:	e5973008 	ldr	r3, [r7, #8]
    4b00:	e5932004 	ldr	r2, [r3, #4]
    4b04:	e3c25003 	bic	r5, r2, #3	; 0x3
    4b08:	e2853efe 	add	r3, r5, #4064	; 0xfe0
    4b0c:	e283300f 	add	r3, r3, #15	; 0xf
    4b10:	e0643003 	rsb	r3, r4, r3
    4b14:	e1a03623 	lsr	r3, r3, #12
    4b18:	e2433001 	sub	r3, r3, #1	; 0x1
    4b1c:	e1a04603 	lsl	r4, r3, #12
    4b20:	e3540a01 	cmp	r4, #4096	; 0x1000
    4b24:	ba000006 	blt	4b44 <_malloc_trim_r+0x5c>
    4b28:	e1a00006 	mov	r0, r6
    4b2c:	e3a01000 	mov	r1, #0	; 0x0
    4b30:	eb000a03 	bl	7344 <_sbrk_r>
    4b34:	e5973008 	ldr	r3, [r7, #8]
    4b38:	e0833005 	add	r3, r3, r5
    4b3c:	e1500003 	cmp	r0, r3
    4b40:	0a000003 	beq	4b54 <_malloc_trim_r+0x6c>
    4b44:	e1a00006 	mov	r0, r6
    4b48:	eb00053b 	bl	603c <__malloc_unlock>
    4b4c:	e3a00000 	mov	r0, #0	; 0x0
    4b50:	e8bd80f0 	pop	{r4, r5, r6, r7, pc}
    4b54:	e1a00006 	mov	r0, r6
    4b58:	e2641000 	rsb	r1, r4, #0	; 0x0
    4b5c:	eb0009f8 	bl	7344 <_sbrk_r>
    4b60:	e3700001 	cmn	r0, #1	; 0x1
    4b64:	0a00000b 	beq	4b98 <_malloc_trim_r+0xb0>
    4b68:	e59fc068 	ldr	ip, [pc, #104]	; 4bd8 <_malloc_trim_r+0xf0>
    4b6c:	e59c2000 	ldr	r2, [ip]
    4b70:	e5971008 	ldr	r1, [r7, #8]
    4b74:	e0643005 	rsb	r3, r4, r5
    4b78:	e3833001 	orr	r3, r3, #1	; 0x1
    4b7c:	e0642002 	rsb	r2, r4, r2
    4b80:	e1a00006 	mov	r0, r6
    4b84:	e5813004 	str	r3, [r1, #4]
    4b88:	e58c2000 	str	r2, [ip]
    4b8c:	eb00052a 	bl	603c <__malloc_unlock>
    4b90:	e3a00001 	mov	r0, #1	; 0x1
    4b94:	e8bd80f0 	pop	{r4, r5, r6, r7, pc}
    4b98:	e3a01000 	mov	r1, #0	; 0x0
    4b9c:	e1a00006 	mov	r0, r6
    4ba0:	eb0009e7 	bl	7344 <_sbrk_r>
    4ba4:	e597c008 	ldr	ip, [r7, #8]
    4ba8:	e06c1000 	rsb	r1, ip, r0
    4bac:	e351000f 	cmp	r1, #15	; 0xf
    4bb0:	daffffe3 	ble	4b44 <_malloc_trim_r+0x5c>
    4bb4:	e59f3020 	ldr	r3, [pc, #32]	; 4bdc <_malloc_trim_r+0xf4>
    4bb8:	e5932000 	ldr	r2, [r3]
    4bbc:	e59f3014 	ldr	r3, [pc, #20]	; 4bd8 <_malloc_trim_r+0xf0>
    4bc0:	e0622000 	rsb	r2, r2, r0
    4bc4:	e3811001 	orr	r1, r1, #1	; 0x1
    4bc8:	e5832000 	str	r2, [r3]
    4bcc:	e58c1004 	str	r1, [ip, #4]
    4bd0:	eaffffdb 	b	4b44 <_malloc_trim_r+0x5c>
    4bd4:	00200414 	.word	0x00200414
    4bd8:	0020083c 	.word	0x0020083c
    4bdc:	00200820 	.word	0x00200820

00004be0 <_free_r>:
    4be0:	e92d41f0 	push	{r4, r5, r6, r7, r8, lr}
    4be4:	e2514000 	subs	r4, r1, #0	; 0x0
    4be8:	e1a08000 	mov	r8, r0
    4bec:	08bd81f0 	popeq	{r4, r5, r6, r7, r8, pc}
    4bf0:	e2445008 	sub	r5, r4, #8	; 0x8
    4bf4:	eb00050f 	bl	6038 <__malloc_lock>
    4bf8:	e5951004 	ldr	r1, [r5, #4]
    4bfc:	e59f7244 	ldr	r7, [pc, #580]	; 4e48 <_free_r+0x268>
    4c00:	e3c1e001 	bic	lr, r1, #1	; 0x1
    4c04:	e085000e 	add	r0, r5, lr
    4c08:	e5973008 	ldr	r3, [r7, #8]
    4c0c:	e5902004 	ldr	r2, [r0, #4]
    4c10:	e1530000 	cmp	r3, r0
    4c14:	e3c26003 	bic	r6, r2, #3	; 0x3
    4c18:	0a00006d 	beq	4dd4 <_free_r+0x1f4>
    4c1c:	e2111001 	ands	r1, r1, #1	; 0x1
    4c20:	e5806004 	str	r6, [r0, #4]
    4c24:	13a01000 	movne	r1, #0	; 0x0
    4c28:	0a000040 	beq	4d30 <_free_r+0x150>
    4c2c:	e0803006 	add	r3, r0, r6
    4c30:	e5932004 	ldr	r2, [r3, #4]
    4c34:	e3120001 	tst	r2, #1	; 0x1
    4c38:	1a000006 	bne	4c58 <_free_r+0x78>
    4c3c:	e3510000 	cmp	r1, #0	; 0x0
    4c40:	e08ee006 	add	lr, lr, r6
    4c44:	15902008 	ldrne	r2, [r0, #8]
    4c48:	0a000047 	beq	4d6c <_free_r+0x18c>
    4c4c:	e590300c 	ldr	r3, [r0, #12]
    4c50:	e5832008 	str	r2, [r3, #8]
    4c54:	e582300c 	str	r3, [r2, #12]
    4c58:	e38e3001 	orr	r3, lr, #1	; 0x1
    4c5c:	e3510000 	cmp	r1, #0	; 0x0
    4c60:	e5853004 	str	r3, [r5, #4]
    4c64:	e785e00e 	str	lr, [r5, lr]
    4c68:	1a00002d 	bne	4d24 <_free_r+0x144>
    4c6c:	e35e0c02 	cmp	lr, #512	; 0x200
    4c70:	3a000049 	bcc	4d9c <_free_r+0x1bc>
    4c74:	e1a014ae 	lsr	r1, lr, #9
    4c78:	e3510004 	cmp	r1, #4	; 0x4
    4c7c:	91a0332e 	lsrls	r3, lr, #6
    4c80:	92831038 	addls	r1, r3, #56	; 0x38
    4c84:	91a03181 	lslls	r3, r1, #3
    4c88:	9a000015 	bls	4ce4 <_free_r+0x104>
    4c8c:	e3510014 	cmp	r1, #20	; 0x14
    4c90:	9281105b 	addls	r1, r1, #91	; 0x5b
    4c94:	91a03181 	lslls	r3, r1, #3
    4c98:	9a000011 	bls	4ce4 <_free_r+0x104>
    4c9c:	e3510054 	cmp	r1, #84	; 0x54
    4ca0:	91a0362e 	lsrls	r3, lr, #12
    4ca4:	9283106e 	addls	r1, r3, #110	; 0x6e
    4ca8:	91a03181 	lslls	r3, r1, #3
    4cac:	9a00000c 	bls	4ce4 <_free_r+0x104>
    4cb0:	e3510f55 	cmp	r1, #340	; 0x154
    4cb4:	91a037ae 	lsrls	r3, lr, #15
    4cb8:	92831077 	addls	r1, r3, #119	; 0x77
    4cbc:	91a03181 	lslls	r3, r1, #3
    4cc0:	9a000007 	bls	4ce4 <_free_r+0x104>
    4cc4:	e3a03e55 	mov	r3, #1360	; 0x550
    4cc8:	e2833004 	add	r3, r3, #4	; 0x4
    4ccc:	e1510003 	cmp	r1, r3
    4cd0:	91a0392e 	lsrls	r3, lr, #18
    4cd4:	9283107c 	addls	r1, r3, #124	; 0x7c
    4cd8:	83a0107e 	movhi	r1, #126	; 0x7e
    4cdc:	82433f59 	subhi	r3, r3, #356	; 0x164
    4ce0:	91a03181 	lslls	r3, r1, #3
    4ce4:	e0872003 	add	r2, r7, r3
    4ce8:	e5920008 	ldr	r0, [r2, #8]
    4cec:	e1500002 	cmp	r0, r2
    4cf0:	0a00004d 	beq	4e2c <_free_r+0x24c>
    4cf4:	e5903004 	ldr	r3, [r0, #4]
    4cf8:	e3c33003 	bic	r3, r3, #3	; 0x3
    4cfc:	e15e0003 	cmp	lr, r3
    4d00:	2a000002 	bcs	4d10 <_free_r+0x130>
    4d04:	e5900008 	ldr	r0, [r0, #8]
    4d08:	e1520000 	cmp	r2, r0
    4d0c:	1afffff8 	bne	4cf4 <_free_r+0x114>
    4d10:	e590300c 	ldr	r3, [r0, #12]
    4d14:	e585300c 	str	r3, [r5, #12]
    4d18:	e5850008 	str	r0, [r5, #8]
    4d1c:	e580500c 	str	r5, [r0, #12]
    4d20:	e5835008 	str	r5, [r3, #8]
    4d24:	e1a00008 	mov	r0, r8
    4d28:	e8bd41f0 	pop	{r4, r5, r6, r7, r8, lr}
    4d2c:	ea0004c2 	b	603c <__malloc_unlock>
    4d30:	e5142008 	ldr	r2, [r4, #-8]
    4d34:	e0625005 	rsb	r5, r2, r5
    4d38:	e595c008 	ldr	ip, [r5, #8]
    4d3c:	e2873008 	add	r3, r7, #8	; 0x8
    4d40:	e15c0003 	cmp	ip, r3
    4d44:	1595300c 	ldrne	r3, [r5, #12]
    4d48:	1583c008 	strne	ip, [r3, #8]
    4d4c:	158c300c 	strne	r3, [ip, #12]
    4d50:	e0803006 	add	r3, r0, r6
    4d54:	e08ee002 	add	lr, lr, r2
    4d58:	e5932004 	ldr	r2, [r3, #4]
    4d5c:	03a01001 	moveq	r1, #1	; 0x1
    4d60:	e3120001 	tst	r2, #1	; 0x1
    4d64:	1affffbb 	bne	4c58 <_free_r+0x78>
    4d68:	eaffffb3 	b	4c3c <_free_r+0x5c>
    4d6c:	e5902008 	ldr	r2, [r0, #8]
    4d70:	e59f30d4 	ldr	r3, [pc, #212]	; 4e4c <_free_r+0x26c>
    4d74:	e1520003 	cmp	r2, r3
    4d78:	1affffb3 	bne	4c4c <_free_r+0x6c>
    4d7c:	e38e3001 	orr	r3, lr, #1	; 0x1
    4d80:	e582500c 	str	r5, [r2, #12]
    4d84:	e5825008 	str	r5, [r2, #8]
    4d88:	e785e00e 	str	lr, [r5, lr]
    4d8c:	e5853004 	str	r3, [r5, #4]
    4d90:	e5852008 	str	r2, [r5, #8]
    4d94:	e585200c 	str	r2, [r5, #12]
    4d98:	eaffffe1 	b	4d24 <_free_r+0x144>
    4d9c:	e1a031ae 	lsr	r3, lr, #3
    4da0:	e5971004 	ldr	r1, [r7, #4]
    4da4:	e1a00143 	asr	r0, r3, #2
    4da8:	e3a02001 	mov	r2, #1	; 0x1
    4dac:	e1811012 	orr	r1, r1, r2, lsl r0
    4db0:	e1a03183 	lsl	r3, r3, #3
    4db4:	e0873003 	add	r3, r7, r3
    4db8:	e5932008 	ldr	r2, [r3, #8]
    4dbc:	e585300c 	str	r3, [r5, #12]
    4dc0:	e5852008 	str	r2, [r5, #8]
    4dc4:	e5871004 	str	r1, [r7, #4]
    4dc8:	e582500c 	str	r5, [r2, #12]
    4dcc:	e5835008 	str	r5, [r3, #8]
    4dd0:	eaffffd3 	b	4d24 <_free_r+0x144>
    4dd4:	e3110001 	tst	r1, #1	; 0x1
    4dd8:	e086000e 	add	r0, r6, lr
    4ddc:	1a000006 	bne	4dfc <_free_r+0x21c>
    4de0:	e5141008 	ldr	r1, [r4, #-8]
    4de4:	e0615005 	rsb	r5, r1, r5
    4de8:	e595200c 	ldr	r2, [r5, #12]
    4dec:	e5953008 	ldr	r3, [r5, #8]
    4df0:	e5823008 	str	r3, [r2, #8]
    4df4:	e583200c 	str	r2, [r3, #12]
    4df8:	e0800001 	add	r0, r0, r1
    4dfc:	e59f304c 	ldr	r3, [pc, #76]	; 4e50 <_free_r+0x270>
    4e00:	e5932000 	ldr	r2, [r3]
    4e04:	e3803001 	orr	r3, r0, #1	; 0x1
    4e08:	e1500002 	cmp	r0, r2
    4e0c:	e5875008 	str	r5, [r7, #8]
    4e10:	e5853004 	str	r3, [r5, #4]
    4e14:	3affffc2 	bcc	4d24 <_free_r+0x144>
    4e18:	e59f3034 	ldr	r3, [pc, #52]	; 4e54 <_free_r+0x274>
    4e1c:	e1a00008 	mov	r0, r8
    4e20:	e5931000 	ldr	r1, [r3]
    4e24:	ebffff2f 	bl	4ae8 <_malloc_trim_r>
    4e28:	eaffffbd 	b	4d24 <_free_r+0x144>
    4e2c:	e5973004 	ldr	r3, [r7, #4]
    4e30:	e1a01141 	asr	r1, r1, #2
    4e34:	e3a02001 	mov	r2, #1	; 0x1
    4e38:	e1833112 	orr	r3, r3, r2, lsl r1
    4e3c:	e5873004 	str	r3, [r7, #4]
    4e40:	e1a03000 	mov	r3, r0
    4e44:	eaffffb2 	b	4d14 <_free_r+0x134>
    4e48:	00200414 	.word	0x00200414
    4e4c:	0020041c 	.word	0x0020041c
    4e50:	0020081c 	.word	0x0020081c
    4e54:	00200830 	.word	0x00200830

00004e58 <__sfvwrite_r>:
    4e58:	e92d4ff0 	push	{r4, r5, r6, r7, r8, r9, sl, fp, lr}
    4e5c:	e5923008 	ldr	r3, [r2, #8]
    4e60:	e24dd008 	sub	sp, sp, #8	; 0x8
    4e64:	e3530000 	cmp	r3, #0	; 0x0
    4e68:	e1a0b002 	mov	fp, r2
    4e6c:	e58d0000 	str	r0, [sp]
    4e70:	e1a06001 	mov	r6, r1
    4e74:	0a000057 	beq	4fd8 <__sfvwrite_r+0x180>
    4e78:	e1d100bc 	ldrh	r0, [r1, #12]
    4e7c:	e3100008 	tst	r0, #8	; 0x8
    4e80:	0a000095 	beq	50dc <__sfvwrite_r+0x284>
    4e84:	e5913010 	ldr	r3, [r1, #16]
    4e88:	e3530000 	cmp	r3, #0	; 0x0
    4e8c:	0a000092 	beq	50dc <__sfvwrite_r+0x284>
    4e90:	e2103002 	ands	r3, r0, #2	; 0x2
    4e94:	13a04000 	movne	r4, #0	; 0x0
    4e98:	e59ba000 	ldr	sl, [fp]
    4e9c:	11a05004 	movne	r5, r4
    4ea0:	1a000039 	bne	4f8c <__sfvwrite_r+0x134>
    4ea4:	e2102001 	ands	r2, r0, #1	; 0x1
    4ea8:	01a05002 	moveq	r5, r2
    4eac:	01a07005 	moveq	r7, r5
    4eb0:	0a00005f 	beq	5034 <__sfvwrite_r+0x1dc>
    4eb4:	e58d3004 	str	r3, [sp, #4]
    4eb8:	e1a07003 	mov	r7, r3
    4ebc:	e1a09003 	mov	r9, r3
    4ec0:	e1a08003 	mov	r8, r3
    4ec4:	e3570000 	cmp	r7, #0	; 0x0
    4ec8:	0a000026 	beq	4f68 <__sfvwrite_r+0x110>
    4ecc:	e59d2004 	ldr	r2, [sp, #4]
    4ed0:	e3520000 	cmp	r2, #0	; 0x0
    4ed4:	0a0000ed 	beq	5290 <__sfvwrite_r+0x438>
    4ed8:	e596c014 	ldr	ip, [r6, #20]
    4edc:	e5961008 	ldr	r1, [r6, #8]
    4ee0:	e5960000 	ldr	r0, [r6]
    4ee4:	e5962010 	ldr	r2, [r6, #16]
    4ee8:	e1580007 	cmp	r8, r7
    4eec:	31a05008 	movcc	r5, r8
    4ef0:	21a05007 	movcs	r5, r7
    4ef4:	e08c4001 	add	r4, ip, r1
    4ef8:	e1500002 	cmp	r0, r2
    4efc:	93a03000 	movls	r3, #0	; 0x0
    4f00:	83a03001 	movhi	r3, #1	; 0x1
    4f04:	e1550004 	cmp	r5, r4
    4f08:	d3a03000 	movle	r3, #0	; 0x0
    4f0c:	e3530000 	cmp	r3, #0	; 0x0
    4f10:	1a0000d2 	bne	5260 <__sfvwrite_r+0x408>
    4f14:	e155000c 	cmp	r5, ip
    4f18:	ba0000bd 	blt	5214 <__sfvwrite_r+0x3bc>
    4f1c:	e1a0300c 	mov	r3, ip
    4f20:	e59d0000 	ldr	r0, [sp]
    4f24:	e596101c 	ldr	r1, [r6, #28]
    4f28:	e1a02009 	mov	r2, r9
    4f2c:	e1a0e00f 	mov	lr, pc
    4f30:	e596f024 	ldr	pc, [r6, #36]
    4f34:	e2504000 	subs	r4, r0, #0	; 0x0
    4f38:	da00008c 	ble	5170 <__sfvwrite_r+0x318>
    4f3c:	e0588004 	subs	r8, r8, r4
    4f40:	0a0000bf 	beq	5244 <__sfvwrite_r+0x3ec>
    4f44:	e59b3008 	ldr	r3, [fp, #8]
    4f48:	e0643003 	rsb	r3, r4, r3
    4f4c:	e3530000 	cmp	r3, #0	; 0x0
    4f50:	e58b3008 	str	r3, [fp, #8]
    4f54:	0a00001f 	beq	4fd8 <__sfvwrite_r+0x180>
    4f58:	e0647007 	rsb	r7, r4, r7
    4f5c:	e3570000 	cmp	r7, #0	; 0x0
    4f60:	e0899004 	add	r9, r9, r4
    4f64:	1affffd8 	bne	4ecc <__sfvwrite_r+0x74>
    4f68:	e3a03000 	mov	r3, #0	; 0x0
    4f6c:	e59a9000 	ldr	r9, [sl]
    4f70:	e59a7004 	ldr	r7, [sl, #4]
    4f74:	e58d3004 	str	r3, [sp, #4]
    4f78:	e28aa008 	add	sl, sl, #8	; 0x8
    4f7c:	eaffffd0 	b	4ec4 <__sfvwrite_r+0x6c>
    4f80:	e59a5000 	ldr	r5, [sl]
    4f84:	e59a4004 	ldr	r4, [sl, #4]
    4f88:	e28aa008 	add	sl, sl, #8	; 0x8
    4f8c:	e3540000 	cmp	r4, #0	; 0x0
    4f90:	e1a02005 	mov	r2, r5
    4f94:	e59d0000 	ldr	r0, [sp]
    4f98:	0afffff8 	beq	4f80 <__sfvwrite_r+0x128>
    4f9c:	e3540b01 	cmp	r4, #1024	; 0x400
    4fa0:	31a03004 	movcc	r3, r4
    4fa4:	23a03b01 	movcs	r3, #1024	; 0x400
    4fa8:	e596101c 	ldr	r1, [r6, #28]
    4fac:	e1a0e00f 	mov	lr, pc
    4fb0:	e596f024 	ldr	pc, [r6, #36]
    4fb4:	e3500000 	cmp	r0, #0	; 0x0
    4fb8:	e0604004 	rsb	r4, r0, r4
    4fbc:	e0855000 	add	r5, r5, r0
    4fc0:	da00006a 	ble	5170 <__sfvwrite_r+0x318>
    4fc4:	e59b3008 	ldr	r3, [fp, #8]
    4fc8:	e0603003 	rsb	r3, r0, r3
    4fcc:	e3530000 	cmp	r3, #0	; 0x0
    4fd0:	e58b3008 	str	r3, [fp, #8]
    4fd4:	1affffec 	bne	4f8c <__sfvwrite_r+0x134>
    4fd8:	e3a00000 	mov	r0, #0	; 0x0
    4fdc:	e28dd008 	add	sp, sp, #8	; 0x8
    4fe0:	e8bd8ff0 	pop	{r4, r5, r6, r7, r8, r9, sl, fp, pc}
    4fe4:	e1a04005 	mov	r4, r5
    4fe8:	e1a02004 	mov	r2, r4
    4fec:	e5960000 	ldr	r0, [r6]
    4ff0:	e1a01007 	mov	r1, r7
    4ff4:	eb00038a 	bl	5e24 <memmove>
    4ff8:	e5963008 	ldr	r3, [r6, #8]
    4ffc:	e5962000 	ldr	r2, [r6]
    5000:	e0643003 	rsb	r3, r4, r3
    5004:	e0822004 	add	r2, r2, r4
    5008:	e5863008 	str	r3, [r6, #8]
    500c:	e5862000 	str	r2, [r6]
    5010:	e1a04005 	mov	r4, r5
    5014:	e59b3008 	ldr	r3, [fp, #8]
    5018:	e0643003 	rsb	r3, r4, r3
    501c:	e3530000 	cmp	r3, #0	; 0x0
    5020:	e58b3008 	str	r3, [fp, #8]
    5024:	0affffeb 	beq	4fd8 <__sfvwrite_r+0x180>
    5028:	e1d600bc 	ldrh	r0, [r6, #12]
    502c:	e0645005 	rsb	r5, r4, r5
    5030:	e0877004 	add	r7, r7, r4
    5034:	e3550000 	cmp	r5, #0	; 0x0
    5038:	0a000035 	beq	5114 <__sfvwrite_r+0x2bc>
    503c:	e3100c02 	tst	r0, #512	; 0x200
    5040:	e5964008 	ldr	r4, [r6, #8]
    5044:	0a000036 	beq	5124 <__sfvwrite_r+0x2cc>
    5048:	e1550004 	cmp	r5, r4
    504c:	3affffe4 	bcc	4fe4 <__sfvwrite_r+0x18c>
    5050:	e3100d12 	tst	r0, #1152	; 0x480
    5054:	0affffe3 	beq	4fe8 <__sfvwrite_r+0x190>
    5058:	e5962014 	ldr	r2, [r6, #20]
    505c:	e596c010 	ldr	ip, [r6, #16]
    5060:	e5961000 	ldr	r1, [r6]
    5064:	e1a03082 	lsl	r3, r2, #1
    5068:	e0833002 	add	r3, r3, r2
    506c:	e06c9001 	rsb	r9, ip, r1
    5070:	e0833fa3 	add	r3, r3, r3, lsr #31
    5074:	e2892001 	add	r2, r9, #1	; 0x1
    5078:	e1a040c3 	asr	r4, r3, #1
    507c:	e0822005 	add	r2, r2, r5
    5080:	e1540002 	cmp	r4, r2
    5084:	31a04002 	movcc	r4, r2
    5088:	e3100b01 	tst	r0, #1024	; 0x400
    508c:	0a000053 	beq	51e0 <__sfvwrite_r+0x388>
    5090:	e59d0000 	ldr	r0, [sp]
    5094:	e1a01004 	mov	r1, r4
    5098:	eb00014e 	bl	55d8 <_malloc_r>
    509c:	e2508000 	subs	r8, r0, #0	; 0x0
    50a0:	0a000057 	beq	5204 <__sfvwrite_r+0x3ac>
    50a4:	e5961010 	ldr	r1, [r6, #16]
    50a8:	e1a02009 	mov	r2, r9
    50ac:	ebffef78 	bl	e94 <memcpy>
    50b0:	e1d630bc 	ldrh	r3, [r6, #12]
    50b4:	e3c33d12 	bic	r3, r3, #1152	; 0x480
    50b8:	e3833080 	orr	r3, r3, #128	; 0x80
    50bc:	e1c630bc 	strh	r3, [r6, #12]
    50c0:	e0692004 	rsb	r2, r9, r4
    50c4:	e0883009 	add	r3, r8, r9
    50c8:	e5863000 	str	r3, [r6]
    50cc:	e5862008 	str	r2, [r6, #8]
    50d0:	e5868010 	str	r8, [r6, #16]
    50d4:	e5864014 	str	r4, [r6, #20]
    50d8:	eaffffc1 	b	4fe4 <__sfvwrite_r+0x18c>
    50dc:	e59d0000 	ldr	r0, [sp]
    50e0:	e1a01006 	mov	r1, r6
    50e4:	ebfff752 	bl	2e34 <__swsetup_r>
    50e8:	e3500000 	cmp	r0, #0	; 0x0
    50ec:	01d600bc 	ldrheq	r0, [r6, #12]
    50f0:	0affff66 	beq	4e90 <__sfvwrite_r+0x38>
    50f4:	e1d630bc 	ldrh	r3, [r6, #12]
    50f8:	e3833040 	orr	r3, r3, #64	; 0x40
    50fc:	e1c630bc 	strh	r3, [r6, #12]
    5100:	e59d3000 	ldr	r3, [sp]
    5104:	e3a02009 	mov	r2, #9	; 0x9
    5108:	e5832000 	str	r2, [r3]
    510c:	e3e00000 	mvn	r0, #0	; 0x0
    5110:	eaffffb1 	b	4fdc <__sfvwrite_r+0x184>
    5114:	e59a7000 	ldr	r7, [sl]
    5118:	e59a5004 	ldr	r5, [sl, #4]
    511c:	e28aa008 	add	sl, sl, #8	; 0x8
    5120:	eaffffc3 	b	5034 <__sfvwrite_r+0x1dc>
    5124:	e5960000 	ldr	r0, [r6]
    5128:	e5963010 	ldr	r3, [r6, #16]
    512c:	e1500003 	cmp	r0, r3
    5130:	93a02000 	movls	r2, #0	; 0x0
    5134:	83a02001 	movhi	r2, #1	; 0x1
    5138:	e1540005 	cmp	r4, r5
    513c:	23a02000 	movcs	r2, #0	; 0x0
    5140:	e3520000 	cmp	r2, #0	; 0x0
    5144:	1a000019 	bne	51b0 <__sfvwrite_r+0x358>
    5148:	e5963014 	ldr	r3, [r6, #20]
    514c:	e1550003 	cmp	r5, r3
    5150:	3a00000b 	bcc	5184 <__sfvwrite_r+0x32c>
    5154:	e59d0000 	ldr	r0, [sp]
    5158:	e596101c 	ldr	r1, [r6, #28]
    515c:	e1a02007 	mov	r2, r7
    5160:	e1a0e00f 	mov	lr, pc
    5164:	e596f024 	ldr	pc, [r6, #36]
    5168:	e2504000 	subs	r4, r0, #0	; 0x0
    516c:	caffffa8 	bgt	5014 <__sfvwrite_r+0x1bc>
    5170:	e1d630bc 	ldrh	r3, [r6, #12]
    5174:	e3833040 	orr	r3, r3, #64	; 0x40
    5178:	e1c630bc 	strh	r3, [r6, #12]
    517c:	e3e00000 	mvn	r0, #0	; 0x0
    5180:	eaffff95 	b	4fdc <__sfvwrite_r+0x184>
    5184:	e1a02005 	mov	r2, r5
    5188:	e1a01007 	mov	r1, r7
    518c:	eb000324 	bl	5e24 <memmove>
    5190:	e5963008 	ldr	r3, [r6, #8]
    5194:	e5962000 	ldr	r2, [r6]
    5198:	e0653003 	rsb	r3, r5, r3
    519c:	e0822005 	add	r2, r2, r5
    51a0:	e5863008 	str	r3, [r6, #8]
    51a4:	e5862000 	str	r2, [r6]
    51a8:	e1a04005 	mov	r4, r5
    51ac:	eaffff98 	b	5014 <__sfvwrite_r+0x1bc>
    51b0:	e1a01007 	mov	r1, r7
    51b4:	e1a02004 	mov	r2, r4
    51b8:	eb000319 	bl	5e24 <memmove>
    51bc:	e5963000 	ldr	r3, [r6]
    51c0:	e0833004 	add	r3, r3, r4
    51c4:	e5863000 	str	r3, [r6]
    51c8:	e59d0000 	ldr	r0, [sp]
    51cc:	e1a01006 	mov	r1, r6
    51d0:	ebfffd22 	bl	4660 <_fflush_r>
    51d4:	e3500000 	cmp	r0, #0	; 0x0
    51d8:	0affff8d 	beq	5014 <__sfvwrite_r+0x1bc>
    51dc:	eaffffe3 	b	5170 <__sfvwrite_r+0x318>
    51e0:	e1a0100c 	mov	r1, ip
    51e4:	e59d0000 	ldr	r0, [sp]
    51e8:	e1a02004 	mov	r2, r4
    51ec:	eb0006f5 	bl	6dc8 <_realloc_r>
    51f0:	e2508000 	subs	r8, r0, #0	; 0x0
    51f4:	1affffb1 	bne	50c0 <__sfvwrite_r+0x268>
    51f8:	e59d0000 	ldr	r0, [sp]
    51fc:	e5961010 	ldr	r1, [r6, #16]
    5200:	ebfffe76 	bl	4be0 <_free_r>
    5204:	e59d2000 	ldr	r2, [sp]
    5208:	e3a0300c 	mov	r3, #12	; 0xc
    520c:	e5823000 	str	r3, [r2]
    5210:	eaffffd6 	b	5170 <__sfvwrite_r+0x318>
    5214:	e1a02005 	mov	r2, r5
    5218:	e1a01009 	mov	r1, r9
    521c:	eb000300 	bl	5e24 <memmove>
    5220:	e5963008 	ldr	r3, [r6, #8]
    5224:	e5962000 	ldr	r2, [r6]
    5228:	e1a04005 	mov	r4, r5
    522c:	e0653003 	rsb	r3, r5, r3
    5230:	e0822005 	add	r2, r2, r5
    5234:	e0588004 	subs	r8, r8, r4
    5238:	e5863008 	str	r3, [r6, #8]
    523c:	e5862000 	str	r2, [r6]
    5240:	1affff3f 	bne	4f44 <__sfvwrite_r+0xec>
    5244:	e59d0000 	ldr	r0, [sp]
    5248:	e1a01006 	mov	r1, r6
    524c:	ebfffd03 	bl	4660 <_fflush_r>
    5250:	e3500000 	cmp	r0, #0	; 0x0
    5254:	1affffc5 	bne	5170 <__sfvwrite_r+0x318>
    5258:	e58d8004 	str	r8, [sp, #4]
    525c:	eaffff38 	b	4f44 <__sfvwrite_r+0xec>
    5260:	e1a01009 	mov	r1, r9
    5264:	e1a02004 	mov	r2, r4
    5268:	eb0002ed 	bl	5e24 <memmove>
    526c:	e5963000 	ldr	r3, [r6]
    5270:	e0833004 	add	r3, r3, r4
    5274:	e5863000 	str	r3, [r6]
    5278:	e59d0000 	ldr	r0, [sp]
    527c:	e1a01006 	mov	r1, r6
    5280:	ebfffcf6 	bl	4660 <_fflush_r>
    5284:	e3500000 	cmp	r0, #0	; 0x0
    5288:	0affff2b 	beq	4f3c <__sfvwrite_r+0xe4>
    528c:	eaffffb7 	b	5170 <__sfvwrite_r+0x318>
    5290:	e1a02007 	mov	r2, r7
    5294:	e1a00009 	mov	r0, r9
    5298:	e3a0100a 	mov	r1, #10	; 0xa
    529c:	eb00029a 	bl	5d0c <memchr>
    52a0:	e3500000 	cmp	r0, #0	; 0x0
    52a4:	12803001 	addne	r3, r0, #1	; 0x1
    52a8:	10698003 	rsbne	r8, r9, r3
    52ac:	03a02001 	moveq	r2, #1	; 0x1
    52b0:	13a03001 	movne	r3, #1	; 0x1
    52b4:	158d3004 	strne	r3, [sp, #4]
    52b8:	02878001 	addeq	r8, r7, #1	; 0x1
    52bc:	058d2004 	streq	r2, [sp, #4]
    52c0:	eaffff04 	b	4ed8 <__sfvwrite_r+0x80>

000052c4 <_fwalk_reent>:
    52c4:	e92d47f0 	push	{r4, r5, r6, r7, r8, r9, sl, lr}
    52c8:	e1a07000 	mov	r7, r0
    52cc:	e1a09001 	mov	r9, r1
    52d0:	ebfffda0 	bl	4958 <__sfp_lock_acquire>
    52d4:	e2978e2e 	adds	r8, r7, #736	; 0x2e0
    52d8:	01a0a008 	moveq	sl, r8
    52dc:	0a000017 	beq	5340 <_fwalk_reent+0x7c>
    52e0:	e3a0a000 	mov	sl, #0	; 0x0
    52e4:	e5986004 	ldr	r6, [r8, #4]
    52e8:	e3560000 	cmp	r6, #0	; 0x0
    52ec:	e5984008 	ldr	r4, [r8, #8]
    52f0:	da00000f 	ble	5334 <_fwalk_reent+0x70>
    52f4:	e3a05000 	mov	r5, #0	; 0x0
    52f8:	e1d430fc 	ldrsh	r3, [r4, #12]
    52fc:	e3530000 	cmp	r3, #0	; 0x0
    5300:	e2855001 	add	r5, r5, #1	; 0x1
    5304:	0a000007 	beq	5328 <_fwalk_reent+0x64>
    5308:	e1d430fe 	ldrsh	r3, [r4, #14]
    530c:	e3730001 	cmn	r3, #1	; 0x1
    5310:	e1a01004 	mov	r1, r4
    5314:	e1a00007 	mov	r0, r7
    5318:	0a000002 	beq	5328 <_fwalk_reent+0x64>
    531c:	e1a0e00f 	mov	lr, pc
    5320:	e12fff19 	bx	r9
    5324:	e18aa000 	orr	sl, sl, r0
    5328:	e1550006 	cmp	r5, r6
    532c:	e284405c 	add	r4, r4, #92	; 0x5c
    5330:	1afffff0 	bne	52f8 <_fwalk_reent+0x34>
    5334:	e5988000 	ldr	r8, [r8]
    5338:	e3580000 	cmp	r8, #0	; 0x0
    533c:	1affffe8 	bne	52e4 <_fwalk_reent+0x20>
    5340:	ebfffd85 	bl	495c <__sfp_lock_release>
    5344:	e1a0000a 	mov	r0, sl
    5348:	e8bd87f0 	pop	{r4, r5, r6, r7, r8, r9, sl, pc}

0000534c <_fwalk>:
    534c:	e92d45f0 	push	{r4, r5, r6, r7, r8, sl, lr}
    5350:	e1a04000 	mov	r4, r0
    5354:	e1a0a001 	mov	sl, r1
    5358:	ebfffd7e 	bl	4958 <__sfp_lock_acquire>
    535c:	e2947e2e 	adds	r7, r4, #736	; 0x2e0
    5360:	01a08007 	moveq	r8, r7
    5364:	0a000016 	beq	53c4 <_fwalk+0x78>
    5368:	e3a08000 	mov	r8, #0	; 0x0
    536c:	e5976004 	ldr	r6, [r7, #4]
    5370:	e3560000 	cmp	r6, #0	; 0x0
    5374:	e5974008 	ldr	r4, [r7, #8]
    5378:	da00000e 	ble	53b8 <_fwalk+0x6c>
    537c:	e3a05000 	mov	r5, #0	; 0x0
    5380:	e1d430fc 	ldrsh	r3, [r4, #12]
    5384:	e3530000 	cmp	r3, #0	; 0x0
    5388:	e2855001 	add	r5, r5, #1	; 0x1
    538c:	0a000006 	beq	53ac <_fwalk+0x60>
    5390:	e1d430fe 	ldrsh	r3, [r4, #14]
    5394:	e3730001 	cmn	r3, #1	; 0x1
    5398:	e1a00004 	mov	r0, r4
    539c:	0a000002 	beq	53ac <_fwalk+0x60>
    53a0:	e1a0e00f 	mov	lr, pc
    53a4:	e12fff1a 	bx	sl
    53a8:	e1888000 	orr	r8, r8, r0
    53ac:	e1550006 	cmp	r5, r6
    53b0:	e284405c 	add	r4, r4, #92	; 0x5c
    53b4:	1afffff1 	bne	5380 <_fwalk+0x34>
    53b8:	e5977000 	ldr	r7, [r7]
    53bc:	e3570000 	cmp	r7, #0	; 0x0
    53c0:	1affffe9 	bne	536c <_fwalk+0x20>
    53c4:	ebfffd64 	bl	495c <__sfp_lock_release>
    53c8:	e1a00008 	mov	r0, r8
    53cc:	e8bd85f0 	pop	{r4, r5, r6, r7, r8, sl, pc}

000053d0 <__locale_charset>:
    53d0:	e59f3004 	ldr	r3, [pc, #4]	; 53dc <__locale_charset+0xc>
    53d4:	e5930000 	ldr	r0, [r3]
    53d8:	e12fff1e 	bx	lr
    53dc:	00008ea4 	.word	0x00008ea4

000053e0 <_localeconv_r>:
    53e0:	e59f0000 	ldr	r0, [pc, #0]	; 53e8 <_localeconv_r+0x8>
    53e4:	e12fff1e 	bx	lr
    53e8:	00008e74 	.word	0x00008e74

000053ec <localeconv>:
    53ec:	e59f0000 	ldr	r0, [pc, #0]	; 53f4 <localeconv+0x8>
    53f0:	e12fff1e 	bx	lr
    53f4:	00008e74 	.word	0x00008e74

000053f8 <_setlocale_r>:
    53f8:	e92d4070 	push	{r4, r5, r6, lr}
    53fc:	e2524000 	subs	r4, r2, #0	; 0x0
    5400:	e1a05000 	mov	r5, r0
    5404:	e1a06001 	mov	r6, r1
    5408:	059f0040 	ldreq	r0, [pc, #64]	; 5450 <_setlocale_r+0x58>
    540c:	08bd8070 	popeq	{r4, r5, r6, pc}
    5410:	e1a00004 	mov	r0, r4
    5414:	e59f1034 	ldr	r1, [pc, #52]	; 5450 <_setlocale_r+0x58>
    5418:	eb000807 	bl	743c <strcmp>
    541c:	e3500000 	cmp	r0, #0	; 0x0
    5420:	1a000003 	bne	5434 <_setlocale_r+0x3c>
    5424:	e5854034 	str	r4, [r5, #52]
    5428:	e5856030 	str	r6, [r5, #48]
    542c:	e59f001c 	ldr	r0, [pc, #28]	; 5450 <_setlocale_r+0x58>
    5430:	e8bd8070 	pop	{r4, r5, r6, pc}
    5434:	e1a00004 	mov	r0, r4
    5438:	e59f1014 	ldr	r1, [pc, #20]	; 5454 <_setlocale_r+0x5c>
    543c:	eb0007fe 	bl	743c <strcmp>
    5440:	e3500000 	cmp	r0, #0	; 0x0
    5444:	13a00000 	movne	r0, #0	; 0x0
    5448:	0afffff5 	beq	5424 <_setlocale_r+0x2c>
    544c:	e8bd8070 	pop	{r4, r5, r6, pc}
    5450:	0000903c 	.word	0x0000903c
    5454:	00008fdc 	.word	0x00008fdc

00005458 <setlocale>:
    5458:	e1a02001 	mov	r2, r1
    545c:	e59f100c 	ldr	r1, [pc, #12]	; 5470 <setlocale+0x18>
    5460:	e1a03000 	mov	r3, r0
    5464:	e5910000 	ldr	r0, [r1]
    5468:	e1a01003 	mov	r1, r3
    546c:	eaffffe1 	b	53f8 <_setlocale_r>
    5470:	00200000 	.word	0x00200000

00005474 <__smakebuf_r>:
    5474:	e1d120bc 	ldrh	r2, [r1, #12]
    5478:	e92d40f0 	push	{r4, r5, r6, r7, lr}
    547c:	e1a03802 	lsl	r3, r2, #16
    5480:	e1a03823 	lsr	r3, r3, #16
    5484:	e3130002 	tst	r3, #2	; 0x2
    5488:	12812043 	addne	r2, r1, #67	; 0x43
    548c:	13a03001 	movne	r3, #1	; 0x1
    5490:	e24dd03c 	sub	sp, sp, #60	; 0x3c
    5494:	e1a04001 	mov	r4, r1
    5498:	e1a06000 	mov	r6, r0
    549c:	15813014 	strne	r3, [r1, #20]
    54a0:	15812010 	strne	r2, [r1, #16]
    54a4:	15812000 	strne	r2, [r1]
    54a8:	1a000030 	bne	5570 <__smakebuf_r+0xfc>
    54ac:	e1d110fe 	ldrsh	r1, [r1, #14]
    54b0:	e3510000 	cmp	r1, #0	; 0x0
    54b4:	ba000012 	blt	5504 <__smakebuf_r+0x90>
    54b8:	e1a0200d 	mov	r2, sp
    54bc:	eb000b09 	bl	80e8 <_fstat_r>
    54c0:	e3500000 	cmp	r0, #0	; 0x0
    54c4:	ba00000b 	blt	54f8 <__smakebuf_r+0x84>
    54c8:	e59d3004 	ldr	r3, [sp, #4]
    54cc:	e2033a0f 	and	r3, r3, #61440	; 0xf000
    54d0:	e3530a02 	cmp	r3, #8192	; 0x2000
    54d4:	13a07000 	movne	r7, #0	; 0x0
    54d8:	03a07001 	moveq	r7, #1	; 0x1
    54dc:	e3530902 	cmp	r3, #32768	; 0x8000
    54e0:	0a00002f 	beq	55a4 <__smakebuf_r+0x130>
    54e4:	e1d430bc 	ldrh	r3, [r4, #12]
    54e8:	e3833b02 	orr	r3, r3, #2048	; 0x800
    54ec:	e1c430bc 	strh	r3, [r4, #12]
    54f0:	e3a05b01 	mov	r5, #1024	; 0x400
    54f4:	ea000008 	b	551c <__smakebuf_r+0xa8>
    54f8:	e1d420bc 	ldrh	r2, [r4, #12]
    54fc:	e1a03802 	lsl	r3, r2, #16
    5500:	e1a03823 	lsr	r3, r3, #16
    5504:	e3130080 	tst	r3, #128	; 0x80
    5508:	e3823b02 	orr	r3, r2, #2048	; 0x800
    550c:	e1c430bc 	strh	r3, [r4, #12]
    5510:	03a05b01 	moveq	r5, #1024	; 0x400
    5514:	13a05040 	movne	r5, #64	; 0x40
    5518:	e3a07000 	mov	r7, #0	; 0x0
    551c:	e1a00006 	mov	r0, r6
    5520:	e1a01005 	mov	r1, r5
    5524:	eb00002b 	bl	55d8 <_malloc_r>
    5528:	e3500000 	cmp	r0, #0	; 0x0
    552c:	0a000011 	beq	5578 <__smakebuf_r+0x104>
    5530:	e1d420bc 	ldrh	r2, [r4, #12]
    5534:	e59f3094 	ldr	r3, [pc, #148]	; 55d0 <__smakebuf_r+0x15c>
    5538:	e3822080 	orr	r2, r2, #128	; 0x80
    553c:	e3570000 	cmp	r7, #0	; 0x0
    5540:	e586303c 	str	r3, [r6, #60]
    5544:	e1c420bc 	strh	r2, [r4, #12]
    5548:	e5840010 	str	r0, [r4, #16]
    554c:	e5845014 	str	r5, [r4, #20]
    5550:	e5840000 	str	r0, [r4]
    5554:	0a000005 	beq	5570 <__smakebuf_r+0xfc>
    5558:	e1d400fe 	ldrsh	r0, [r4, #14]
    555c:	eb000955 	bl	7ab8 <isatty>
    5560:	e3500000 	cmp	r0, #0	; 0x0
    5564:	11d430bc 	ldrhne	r3, [r4, #12]
    5568:	13833001 	orrne	r3, r3, #1	; 0x1
    556c:	11c430bc 	strhne	r3, [r4, #12]
    5570:	e28dd03c 	add	sp, sp, #60	; 0x3c
    5574:	e8bd80f0 	pop	{r4, r5, r6, r7, pc}
    5578:	e1d410bc 	ldrh	r1, [r4, #12]
    557c:	e3110c02 	tst	r1, #512	; 0x200
    5580:	1afffffa 	bne	5570 <__smakebuf_r+0xfc>
    5584:	e2842043 	add	r2, r4, #67	; 0x43
    5588:	e3811002 	orr	r1, r1, #2	; 0x2
    558c:	e3a03001 	mov	r3, #1	; 0x1
    5590:	e5843014 	str	r3, [r4, #20]
    5594:	e1c410bc 	strh	r1, [r4, #12]
    5598:	e5842010 	str	r2, [r4, #16]
    559c:	e5842000 	str	r2, [r4]
    55a0:	eafffff2 	b	5570 <__smakebuf_r+0xfc>
    55a4:	e5942028 	ldr	r2, [r4, #40]
    55a8:	e59f3024 	ldr	r3, [pc, #36]	; 55d4 <__smakebuf_r+0x160>
    55ac:	e1520003 	cmp	r2, r3
    55b0:	1affffcb 	bne	54e4 <__smakebuf_r+0x70>
    55b4:	e1d430bc 	ldrh	r3, [r4, #12]
    55b8:	e3a02b01 	mov	r2, #1024	; 0x400
    55bc:	e3833b01 	orr	r3, r3, #1024	; 0x400
    55c0:	e1c430bc 	strh	r3, [r4, #12]
    55c4:	e584204c 	str	r2, [r4, #76]
    55c8:	e1a05002 	mov	r5, r2
    55cc:	eaffffd2 	b	551c <__smakebuf_r+0xa8>
    55d0:	000049a8 	.word	0x000049a8
    55d4:	00007384 	.word	0x00007384

000055d8 <_malloc_r>:
    55d8:	e1a03001 	mov	r3, r1
    55dc:	e281100b 	add	r1, r1, #11	; 0xb
    55e0:	e3510016 	cmp	r1, #22	; 0x16
    55e4:	e92d4ff0 	push	{r4, r5, r6, r7, r8, r9, sl, fp, lr}
    55e8:	83c16007 	bichi	r6, r1, #7	; 0x7
    55ec:	93a06010 	movls	r6, #16	; 0x10
    55f0:	93a01000 	movls	r1, #0	; 0x0
    55f4:	81a01fa6 	lsrhi	r1, r6, #31
    55f8:	e1560003 	cmp	r6, r3
    55fc:	21a03001 	movcs	r3, r1
    5600:	33813001 	orrcc	r3, r1, #1	; 0x1
    5604:	e3530000 	cmp	r3, #0	; 0x0
    5608:	13a0300c 	movne	r3, #12	; 0xc
    560c:	e1a08000 	mov	r8, r0
    5610:	15803000 	strne	r3, [r0]
    5614:	13a05000 	movne	r5, #0	; 0x0
    5618:	1a000015 	bne	5674 <_malloc_r+0x9c>
    561c:	eb000285 	bl	6038 <__malloc_lock>
    5620:	e3560f7e 	cmp	r6, #504	; 0x1f8
    5624:	2a000014 	bcs	567c <_malloc_r+0xa4>
    5628:	e59fe6c0 	ldr	lr, [pc, #1728]	; 5cf0 <_malloc_r+0x718>
    562c:	e08e3006 	add	r3, lr, r6
    5630:	e593400c 	ldr	r4, [r3, #12]
    5634:	e1540003 	cmp	r4, r3
    5638:	e1a021a6 	lsr	r2, r6, #3
    563c:	0a00015a 	beq	5bac <_malloc_r+0x5d4>
    5640:	e5943004 	ldr	r3, [r4, #4]
    5644:	e3c33003 	bic	r3, r3, #3	; 0x3
    5648:	e0843003 	add	r3, r4, r3
    564c:	e5932004 	ldr	r2, [r3, #4]
    5650:	e594000c 	ldr	r0, [r4, #12]
    5654:	e5941008 	ldr	r1, [r4, #8]
    5658:	e3822001 	orr	r2, r2, #1	; 0x1
    565c:	e5801008 	str	r1, [r0, #8]
    5660:	e581000c 	str	r0, [r1, #12]
    5664:	e5832004 	str	r2, [r3, #4]
    5668:	e1a00008 	mov	r0, r8
    566c:	eb000272 	bl	603c <__malloc_unlock>
    5670:	e2845008 	add	r5, r4, #8	; 0x8
    5674:	e1a00005 	mov	r0, r5
    5678:	e8bd8ff0 	pop	{r4, r5, r6, r7, r8, r9, sl, fp, pc}
    567c:	e1b024a6 	lsrs	r2, r6, #9
    5680:	01a021a6 	lsreq	r2, r6, #3
    5684:	01a03182 	lsleq	r3, r2, #3
    5688:	0a000004 	beq	56a0 <_malloc_r+0xc8>
    568c:	e3520004 	cmp	r2, #4	; 0x4
    5690:	91a03326 	lsrls	r3, r6, #6
    5694:	92832038 	addls	r2, r3, #56	; 0x38
    5698:	91a03182 	lslls	r3, r2, #3
    569c:	8a00006b 	bhi	5850 <_malloc_r+0x278>
    56a0:	e59fe648 	ldr	lr, [pc, #1608]	; 5cf0 <_malloc_r+0x718>
    56a4:	e08e0003 	add	r0, lr, r3
    56a8:	e590400c 	ldr	r4, [r0, #12]
    56ac:	e1500004 	cmp	r0, r4
    56b0:	1a000005 	bne	56cc <_malloc_r+0xf4>
    56b4:	ea00000a 	b	56e4 <_malloc_r+0x10c>
    56b8:	e3510000 	cmp	r1, #0	; 0x0
    56bc:	aa00007a 	bge	58ac <_malloc_r+0x2d4>
    56c0:	e594400c 	ldr	r4, [r4, #12]
    56c4:	e1500004 	cmp	r0, r4
    56c8:	0a000005 	beq	56e4 <_malloc_r+0x10c>
    56cc:	e5943004 	ldr	r3, [r4, #4]
    56d0:	e3c33003 	bic	r3, r3, #3	; 0x3
    56d4:	e0661003 	rsb	r1, r6, r3
    56d8:	e351000f 	cmp	r1, #15	; 0xf
    56dc:	dafffff5 	ble	56b8 <_malloc_r+0xe0>
    56e0:	e2422001 	sub	r2, r2, #1	; 0x1
    56e4:	e2825001 	add	r5, r2, #1	; 0x1
    56e8:	e59f7604 	ldr	r7, [pc, #1540]	; 5cf4 <_malloc_r+0x71c>
    56ec:	e5974008 	ldr	r4, [r7, #8]
    56f0:	e1570004 	cmp	r7, r4
    56f4:	0a000017 	beq	5758 <_malloc_r+0x180>
    56f8:	e5943004 	ldr	r3, [r4, #4]
    56fc:	e3c3c003 	bic	ip, r3, #3	; 0x3
    5700:	e066000c 	rsb	r0, r6, ip
    5704:	e350000f 	cmp	r0, #15	; 0xf
    5708:	ca0000e9 	bgt	5ab4 <_malloc_r+0x4dc>
    570c:	e3500000 	cmp	r0, #0	; 0x0
    5710:	e587700c 	str	r7, [r7, #12]
    5714:	e5877008 	str	r7, [r7, #8]
    5718:	aa000043 	bge	582c <_malloc_r+0x254>
    571c:	e35c0c02 	cmp	ip, #512	; 0x200
    5720:	2a0000f1 	bcs	5aec <_malloc_r+0x514>
    5724:	e1a031ac 	lsr	r3, ip, #3
    5728:	e59e1004 	ldr	r1, [lr, #4]
    572c:	e1a00143 	asr	r0, r3, #2
    5730:	e3a02001 	mov	r2, #1	; 0x1
    5734:	e1811012 	orr	r1, r1, r2, lsl r0
    5738:	e1a03183 	lsl	r3, r3, #3
    573c:	e08e3003 	add	r3, lr, r3
    5740:	e5932008 	ldr	r2, [r3, #8]
    5744:	e584300c 	str	r3, [r4, #12]
    5748:	e5842008 	str	r2, [r4, #8]
    574c:	e58e1004 	str	r1, [lr, #4]
    5750:	e582400c 	str	r4, [r2, #12]
    5754:	e5834008 	str	r4, [r3, #8]
    5758:	e247a008 	sub	sl, r7, #8	; 0x8
    575c:	e1a02145 	asr	r2, r5, #2
    5760:	e3a03001 	mov	r3, #1	; 0x1
    5764:	e1a00213 	lsl	r0, r3, r2
    5768:	e59a1004 	ldr	r1, [sl, #4]
    576c:	e1500001 	cmp	r0, r1
    5770:	8a00005a 	bhi	58e0 <_malloc_r+0x308>
    5774:	e1100001 	tst	r0, r1
    5778:	1a000008 	bne	57a0 <_malloc_r+0x1c8>
    577c:	e1a00310 	lsl	r0, r0, r3
    5780:	e3c53003 	bic	r3, r5, #3	; 0x3
    5784:	e1100001 	tst	r0, r1
    5788:	e2835004 	add	r5, r3, #4	; 0x4
    578c:	1a000003 	bne	57a0 <_malloc_r+0x1c8>
    5790:	e1a00080 	lsl	r0, r0, #1
    5794:	e1100001 	tst	r0, r1
    5798:	e2855004 	add	r5, r5, #4	; 0x4
    579c:	0afffffb 	beq	5790 <_malloc_r+0x1b8>
    57a0:	e1a03185 	lsl	r3, r5, #3
    57a4:	e08a1003 	add	r1, sl, r3
    57a8:	e1a09005 	mov	r9, r5
    57ac:	e1a02001 	mov	r2, r1
    57b0:	e592400c 	ldr	r4, [r2, #12]
    57b4:	e1520004 	cmp	r2, r4
    57b8:	1a000005 	bne	57d4 <_malloc_r+0x1fc>
    57bc:	ea000100 	b	5bc4 <_malloc_r+0x5ec>
    57c0:	e35e0000 	cmp	lr, #0	; 0x0
    57c4:	aa000103 	bge	5bd8 <_malloc_r+0x600>
    57c8:	e594400c 	ldr	r4, [r4, #12]
    57cc:	e1520004 	cmp	r2, r4
    57d0:	0a0000fb 	beq	5bc4 <_malloc_r+0x5ec>
    57d4:	e5943004 	ldr	r3, [r4, #4]
    57d8:	e3c33003 	bic	r3, r3, #3	; 0x3
    57dc:	e066e003 	rsb	lr, r6, r3
    57e0:	e35e000f 	cmp	lr, #15	; 0xf
    57e4:	dafffff5 	ble	57c0 <_malloc_r+0x1e8>
    57e8:	e1a05004 	mov	r5, r4
    57ec:	e5b50008 	ldr	r0, [r5, #8]!
    57f0:	e594c00c 	ldr	ip, [r4, #12]
    57f4:	e0843006 	add	r3, r4, r6
    57f8:	e3861001 	orr	r1, r6, #1	; 0x1
    57fc:	e38e2001 	orr	r2, lr, #1	; 0x1
    5800:	e58c0008 	str	r0, [ip, #8]
    5804:	e580c00c 	str	ip, [r0, #12]
    5808:	e5841004 	str	r1, [r4, #4]
    580c:	e5873008 	str	r3, [r7, #8]
    5810:	e587300c 	str	r3, [r7, #12]
    5814:	e783e00e 	str	lr, [r3, lr]
    5818:	e9830084 	stmib	r3, {r2, r7}
    581c:	e1a00008 	mov	r0, r8
    5820:	e583700c 	str	r7, [r3, #12]
    5824:	eb000204 	bl	603c <__malloc_unlock>
    5828:	eaffff91 	b	5674 <_malloc_r+0x9c>
    582c:	e084200c 	add	r2, r4, ip
    5830:	e5923004 	ldr	r3, [r2, #4]
    5834:	e3833001 	orr	r3, r3, #1	; 0x1
    5838:	e1a00008 	mov	r0, r8
    583c:	e5823004 	str	r3, [r2, #4]
    5840:	e2845008 	add	r5, r4, #8	; 0x8
    5844:	eb0001fc 	bl	603c <__malloc_unlock>
    5848:	e1a00005 	mov	r0, r5
    584c:	e8bd8ff0 	pop	{r4, r5, r6, r7, r8, r9, sl, fp, pc}
    5850:	e3520014 	cmp	r2, #20	; 0x14
    5854:	9282205b 	addls	r2, r2, #91	; 0x5b
    5858:	91a03182 	lslls	r3, r2, #3
    585c:	9affff8f 	bls	56a0 <_malloc_r+0xc8>
    5860:	e3520054 	cmp	r2, #84	; 0x54
    5864:	91a03626 	lsrls	r3, r6, #12
    5868:	9283206e 	addls	r2, r3, #110	; 0x6e
    586c:	91a03182 	lslls	r3, r2, #3
    5870:	9affff8a 	bls	56a0 <_malloc_r+0xc8>
    5874:	e3520f55 	cmp	r2, #340	; 0x154
    5878:	91a037a6 	lsrls	r3, r6, #15
    587c:	92832077 	addls	r2, r3, #119	; 0x77
    5880:	91a03182 	lslls	r3, r2, #3
    5884:	9affff85 	bls	56a0 <_malloc_r+0xc8>
    5888:	e3a03e55 	mov	r3, #1360	; 0x550
    588c:	e2833004 	add	r3, r3, #4	; 0x4
    5890:	e1520003 	cmp	r2, r3
    5894:	91a03926 	lsrls	r3, r6, #18
    5898:	9283207c 	addls	r2, r3, #124	; 0x7c
    589c:	83a0207e 	movhi	r2, #126	; 0x7e
    58a0:	82433f59 	subhi	r3, r3, #356	; 0x164
    58a4:	91a03182 	lslls	r3, r2, #3
    58a8:	eaffff7c 	b	56a0 <_malloc_r+0xc8>
    58ac:	e0840003 	add	r0, r4, r3
    58b0:	e5903004 	ldr	r3, [r0, #4]
    58b4:	e594100c 	ldr	r1, [r4, #12]
    58b8:	e5942008 	ldr	r2, [r4, #8]
    58bc:	e3833001 	orr	r3, r3, #1	; 0x1
    58c0:	e5803004 	str	r3, [r0, #4]
    58c4:	e5812008 	str	r2, [r1, #8]
    58c8:	e1a00008 	mov	r0, r8
    58cc:	e582100c 	str	r1, [r2, #12]
    58d0:	e2845008 	add	r5, r4, #8	; 0x8
    58d4:	eb0001d8 	bl	603c <__malloc_unlock>
    58d8:	e1a00005 	mov	r0, r5
    58dc:	e8bd8ff0 	pop	{r4, r5, r6, r7, r8, r9, sl, fp, pc}
    58e0:	e59a5008 	ldr	r5, [sl, #8]
    58e4:	e5953004 	ldr	r3, [r5, #4]
    58e8:	e3c39003 	bic	r9, r3, #3	; 0x3
    58ec:	e0660009 	rsb	r0, r6, r9
    58f0:	e350000f 	cmp	r0, #15	; 0xf
    58f4:	c3a03000 	movgt	r3, #0	; 0x0
    58f8:	d3a03001 	movle	r3, #1	; 0x1
    58fc:	e1560009 	cmp	r6, r9
    5900:	83833001 	orrhi	r3, r3, #1	; 0x1
    5904:	e3530000 	cmp	r3, #0	; 0x0
    5908:	0a00005e 	beq	5a88 <_malloc_r+0x4b0>
    590c:	e59f33e4 	ldr	r3, [pc, #996]	; 5cf8 <_malloc_r+0x720>
    5910:	e59f03e4 	ldr	r0, [pc, #996]	; 5cfc <_malloc_r+0x724>
    5914:	e5932000 	ldr	r2, [r3]
    5918:	e5901000 	ldr	r1, [r0]
    591c:	e2822010 	add	r2, r2, #16	; 0x10
    5920:	e3710001 	cmn	r1, #1	; 0x1
    5924:	e0824006 	add	r4, r2, r6
    5928:	12843eff 	addne	r3, r4, #4080	; 0xff0
    592c:	1283300f 	addne	r3, r3, #15	; 0xf
    5930:	13c34eff 	bicne	r4, r3, #4080	; 0xff0
    5934:	13c4400f 	bicne	r4, r4, #15	; 0xf
    5938:	e1a00008 	mov	r0, r8
    593c:	e1a01004 	mov	r1, r4
    5940:	eb00067f 	bl	7344 <_sbrk_r>
    5944:	e3700001 	cmn	r0, #1	; 0x1
    5948:	e1a07000 	mov	r7, r0
    594c:	0a000042 	beq	5a5c <_malloc_r+0x484>
    5950:	e0852009 	add	r2, r5, r9
    5954:	e1520000 	cmp	r2, r0
    5958:	9a0000c2 	bls	5c68 <_malloc_r+0x690>
    595c:	e155000a 	cmp	r5, sl
    5960:	1a00003d 	bne	5a5c <_malloc_r+0x484>
    5964:	e59fb394 	ldr	fp, [pc, #916]	; 5d00 <_malloc_r+0x728>
    5968:	e59b3000 	ldr	r3, [fp]
    596c:	e0841003 	add	r1, r4, r3
    5970:	e58b1000 	str	r1, [fp]
    5974:	e59f0380 	ldr	r0, [pc, #896]	; 5cfc <_malloc_r+0x724>
    5978:	e5903000 	ldr	r3, [r0]
    597c:	e3730001 	cmn	r3, #1	; 0x1
    5980:	10623007 	rsbne	r3, r2, r7
    5984:	10833001 	addne	r3, r3, r1
    5988:	01a03000 	moveq	r3, r0
    598c:	05837000 	streq	r7, [r3]
    5990:	158b3000 	strne	r3, [fp]
    5994:	e2173007 	ands	r3, r7, #7	; 0x7
    5998:	12633008 	rsbne	r3, r3, #8	; 0x8
    599c:	10877003 	addne	r7, r7, r3
    59a0:	12831a01 	addne	r1, r3, #4096	; 0x1000
    59a4:	e0873004 	add	r3, r7, r4
    59a8:	e1a03a03 	lsl	r3, r3, #20
    59ac:	e1a03a23 	lsr	r3, r3, #20
    59b0:	03a01a01 	moveq	r1, #4096	; 0x1000
    59b4:	e0634001 	rsb	r4, r3, r1
    59b8:	e1a01004 	mov	r1, r4
    59bc:	e1a00008 	mov	r0, r8
    59c0:	eb00065f 	bl	7344 <_sbrk_r>
    59c4:	e3700001 	cmn	r0, #1	; 0x1
    59c8:	10673000 	rsbne	r3, r7, r0
    59cc:	10833004 	addne	r3, r3, r4
    59d0:	13830001 	orrne	r0, r3, #1	; 0x1
    59d4:	e59b3000 	ldr	r3, [fp]
    59d8:	03a04000 	moveq	r4, #0	; 0x0
    59dc:	02800002 	addeq	r0, r0, #2	; 0x2
    59e0:	e0843003 	add	r3, r4, r3
    59e4:	e155000a 	cmp	r5, sl
    59e8:	e58b3000 	str	r3, [fp]
    59ec:	e5870004 	str	r0, [r7, #4]
    59f0:	e58a7008 	str	r7, [sl, #8]
    59f4:	0a00000f 	beq	5a38 <_malloc_r+0x460>
    59f8:	e359000f 	cmp	r9, #15	; 0xf
    59fc:	93a03001 	movls	r3, #1	; 0x1
    5a00:	95873004 	strls	r3, [r7, #4]
    5a04:	9a000014 	bls	5a5c <_malloc_r+0x484>
    5a08:	e249200c 	sub	r2, r9, #12	; 0xc
    5a0c:	e3c22007 	bic	r2, r2, #7	; 0x7
    5a10:	e0850002 	add	r0, r5, r2
    5a14:	e3a01005 	mov	r1, #5	; 0x5
    5a18:	e5801008 	str	r1, [r0, #8]
    5a1c:	e5801004 	str	r1, [r0, #4]
    5a20:	e5953004 	ldr	r3, [r5, #4]
    5a24:	e2033001 	and	r3, r3, #1	; 0x1
    5a28:	e352000f 	cmp	r2, #15	; 0xf
    5a2c:	e1822003 	orr	r2, r2, r3
    5a30:	e5852004 	str	r2, [r5, #4]
    5a34:	8a0000a0 	bhi	5cbc <_malloc_r+0x6e4>
    5a38:	e59f12c4 	ldr	r1, [pc, #708]	; 5d04 <_malloc_r+0x72c>
    5a3c:	e59b2000 	ldr	r2, [fp]
    5a40:	e5913000 	ldr	r3, [r1]
    5a44:	e1520003 	cmp	r2, r3
    5a48:	85812000 	strhi	r2, [r1]
    5a4c:	e59f12b4 	ldr	r1, [pc, #692]	; 5d08 <_malloc_r+0x730>
    5a50:	e5913000 	ldr	r3, [r1]
    5a54:	e1520003 	cmp	r2, r3
    5a58:	85812000 	strhi	r2, [r1]
    5a5c:	e59a5008 	ldr	r5, [sl, #8]
    5a60:	e5952004 	ldr	r2, [r5, #4]
    5a64:	e3c22003 	bic	r2, r2, #3	; 0x3
    5a68:	e0660002 	rsb	r0, r6, r2
    5a6c:	e350000f 	cmp	r0, #15	; 0xf
    5a70:	c3a03000 	movgt	r3, #0	; 0x0
    5a74:	d3a03001 	movle	r3, #1	; 0x1
    5a78:	e1560002 	cmp	r6, r2
    5a7c:	83833001 	orrhi	r3, r3, #1	; 0x1
    5a80:	e3530000 	cmp	r3, #0	; 0x0
    5a84:	1a000095 	bne	5ce0 <_malloc_r+0x708>
    5a88:	e0851006 	add	r1, r5, r6
    5a8c:	e3802001 	orr	r2, r0, #1	; 0x1
    5a90:	e3863001 	orr	r3, r6, #1	; 0x1
    5a94:	e5853004 	str	r3, [r5, #4]
    5a98:	e1a00008 	mov	r0, r8
    5a9c:	e5812004 	str	r2, [r1, #4]
    5aa0:	e58a1008 	str	r1, [sl, #8]
    5aa4:	e2855008 	add	r5, r5, #8	; 0x8
    5aa8:	eb000163 	bl	603c <__malloc_unlock>
    5aac:	e1a00005 	mov	r0, r5
    5ab0:	e8bd8ff0 	pop	{r4, r5, r6, r7, r8, r9, sl, fp, pc}
    5ab4:	e0842006 	add	r2, r4, r6
    5ab8:	e3801001 	orr	r1, r0, #1	; 0x1
    5abc:	e3863001 	orr	r3, r6, #1	; 0x1
    5ac0:	e7820000 	str	r0, [r2, r0]
    5ac4:	e5843004 	str	r3, [r4, #4]
    5ac8:	e587200c 	str	r2, [r7, #12]
    5acc:	e5872008 	str	r2, [r7, #8]
    5ad0:	e1a00008 	mov	r0, r8
    5ad4:	e9820082 	stmib	r2, {r1, r7}
    5ad8:	e582700c 	str	r7, [r2, #12]
    5adc:	e2845008 	add	r5, r4, #8	; 0x8
    5ae0:	eb000155 	bl	603c <__malloc_unlock>
    5ae4:	e1a00005 	mov	r0, r5
    5ae8:	e8bd8ff0 	pop	{r4, r5, r6, r7, r8, r9, sl, fp, pc}
    5aec:	e1a014ac 	lsr	r1, ip, #9
    5af0:	e3510004 	cmp	r1, #4	; 0x4
    5af4:	91a0332c 	lsrls	r3, ip, #6
    5af8:	92831038 	addls	r1, r3, #56	; 0x38
    5afc:	91a03181 	lslls	r3, r1, #3
    5b00:	9a000015 	bls	5b5c <_malloc_r+0x584>
    5b04:	e3510014 	cmp	r1, #20	; 0x14
    5b08:	9281105b 	addls	r1, r1, #91	; 0x5b
    5b0c:	91a03181 	lslls	r3, r1, #3
    5b10:	9a000011 	bls	5b5c <_malloc_r+0x584>
    5b14:	e3510054 	cmp	r1, #84	; 0x54
    5b18:	91a0362c 	lsrls	r3, ip, #12
    5b1c:	9283106e 	addls	r1, r3, #110	; 0x6e
    5b20:	91a03181 	lslls	r3, r1, #3
    5b24:	9a00000c 	bls	5b5c <_malloc_r+0x584>
    5b28:	e3510f55 	cmp	r1, #340	; 0x154
    5b2c:	91a037ac 	lsrls	r3, ip, #15
    5b30:	92831077 	addls	r1, r3, #119	; 0x77
    5b34:	91a03181 	lslls	r3, r1, #3
    5b38:	9a000007 	bls	5b5c <_malloc_r+0x584>
    5b3c:	e3a03e55 	mov	r3, #1360	; 0x550
    5b40:	e2833004 	add	r3, r3, #4	; 0x4
    5b44:	e1510003 	cmp	r1, r3
    5b48:	91a0392c 	lsrls	r3, ip, #18
    5b4c:	9283107c 	addls	r1, r3, #124	; 0x7c
    5b50:	83a0107e 	movhi	r1, #126	; 0x7e
    5b54:	82433f59 	subhi	r3, r3, #356	; 0x164
    5b58:	91a03181 	lslls	r3, r1, #3
    5b5c:	e08e0003 	add	r0, lr, r3
    5b60:	e590e008 	ldr	lr, [r0, #8]
    5b64:	e15e0000 	cmp	lr, r0
    5b68:	e59fa180 	ldr	sl, [pc, #384]	; 5cf0 <_malloc_r+0x718>
    5b6c:	11a0200e 	movne	r2, lr
    5b70:	0a00004a 	beq	5ca0 <_malloc_r+0x6c8>
    5b74:	e5923004 	ldr	r3, [r2, #4]
    5b78:	e3c33003 	bic	r3, r3, #3	; 0x3
    5b7c:	e15c0003 	cmp	ip, r3
    5b80:	2a000002 	bcs	5b90 <_malloc_r+0x5b8>
    5b84:	e5922008 	ldr	r2, [r2, #8]
    5b88:	e1500002 	cmp	r0, r2
    5b8c:	1afffff8 	bne	5b74 <_malloc_r+0x59c>
    5b90:	e592300c 	ldr	r3, [r2, #12]
    5b94:	e1a0e002 	mov	lr, r2
    5b98:	e584300c 	str	r3, [r4, #12]
    5b9c:	e584e008 	str	lr, [r4, #8]
    5ba0:	e58e400c 	str	r4, [lr, #12]
    5ba4:	e5834008 	str	r4, [r3, #8]
    5ba8:	eafffeeb 	b	575c <_malloc_r+0x184>
    5bac:	e2843008 	add	r3, r4, #8	; 0x8
    5bb0:	e593400c 	ldr	r4, [r3, #12]
    5bb4:	e1530004 	cmp	r3, r4
    5bb8:	02825002 	addeq	r5, r2, #2	; 0x2
    5bbc:	0afffec9 	beq	56e8 <_malloc_r+0x110>
    5bc0:	eafffe9e 	b	5640 <_malloc_r+0x68>
    5bc4:	e2899001 	add	r9, r9, #1	; 0x1
    5bc8:	e3190003 	tst	r9, #3	; 0x3
    5bcc:	0a00000d 	beq	5c08 <_malloc_r+0x630>
    5bd0:	e2822008 	add	r2, r2, #8	; 0x8
    5bd4:	eafffef5 	b	57b0 <_malloc_r+0x1d8>
    5bd8:	e0840003 	add	r0, r4, r3
    5bdc:	e5903004 	ldr	r3, [r0, #4]
    5be0:	e1a05004 	mov	r5, r4
    5be4:	e594100c 	ldr	r1, [r4, #12]
    5be8:	e5b52008 	ldr	r2, [r5, #8]!
    5bec:	e3833001 	orr	r3, r3, #1	; 0x1
    5bf0:	e5803004 	str	r3, [r0, #4]
    5bf4:	e5812008 	str	r2, [r1, #8]
    5bf8:	e582100c 	str	r1, [r2, #12]
    5bfc:	e1a00008 	mov	r0, r8
    5c00:	eb00010d 	bl	603c <__malloc_unlock>
    5c04:	eafffe9a 	b	5674 <_malloc_r+0x9c>
    5c08:	e1a02005 	mov	r2, r5
    5c0c:	e1a0c001 	mov	ip, r1
    5c10:	e3120003 	tst	r2, #3	; 0x3
    5c14:	e1a0100c 	mov	r1, ip
    5c18:	e2422001 	sub	r2, r2, #1	; 0x1
    5c1c:	0a00002a 	beq	5ccc <_malloc_r+0x6f4>
    5c20:	e411c008 	ldr	ip, [r1], #-8
    5c24:	e15c0001 	cmp	ip, r1
    5c28:	0afffff8 	beq	5c10 <_malloc_r+0x638>
    5c2c:	e59a3004 	ldr	r3, [sl, #4]
    5c30:	e1a00080 	lsl	r0, r0, #1
    5c34:	e1500003 	cmp	r0, r3
    5c38:	8affff28 	bhi	58e0 <_malloc_r+0x308>
    5c3c:	e3500000 	cmp	r0, #0	; 0x0
    5c40:	0affff26 	beq	58e0 <_malloc_r+0x308>
    5c44:	e1100003 	tst	r0, r3
    5c48:	11a05009 	movne	r5, r9
    5c4c:	1afffed3 	bne	57a0 <_malloc_r+0x1c8>
    5c50:	e1a00080 	lsl	r0, r0, #1
    5c54:	e1100003 	tst	r0, r3
    5c58:	e2899004 	add	r9, r9, #4	; 0x4
    5c5c:	0afffffb 	beq	5c50 <_malloc_r+0x678>
    5c60:	e1a05009 	mov	r5, r9
    5c64:	eafffecd 	b	57a0 <_malloc_r+0x1c8>
    5c68:	e59fb090 	ldr	fp, [pc, #144]	; 5d00 <_malloc_r+0x728>
    5c6c:	e59b3000 	ldr	r3, [fp]
    5c70:	e0841003 	add	r1, r4, r3
    5c74:	e58b1000 	str	r1, [fp]
    5c78:	1affff3d 	bne	5974 <_malloc_r+0x39c>
    5c7c:	e1a03a02 	lsl	r3, r2, #20
    5c80:	e1a03a23 	lsr	r3, r3, #20
    5c84:	e3530000 	cmp	r3, #0	; 0x0
    5c88:	1affff39 	bne	5974 <_malloc_r+0x39c>
    5c8c:	e0843009 	add	r3, r4, r9
    5c90:	e59a2008 	ldr	r2, [sl, #8]
    5c94:	e3833001 	orr	r3, r3, #1	; 0x1
    5c98:	e5823004 	str	r3, [r2, #4]
    5c9c:	eaffff65 	b	5a38 <_malloc_r+0x460>
    5ca0:	e59a3004 	ldr	r3, [sl, #4]
    5ca4:	e1a01141 	asr	r1, r1, #2
    5ca8:	e3a02001 	mov	r2, #1	; 0x1
    5cac:	e1833112 	orr	r3, r3, r2, lsl r1
    5cb0:	e58a3004 	str	r3, [sl, #4]
    5cb4:	e1a0300e 	mov	r3, lr
    5cb8:	eaffffb6 	b	5b98 <_malloc_r+0x5c0>
    5cbc:	e2851008 	add	r1, r5, #8	; 0x8
    5cc0:	e1a00008 	mov	r0, r8
    5cc4:	ebfffbc5 	bl	4be0 <_free_r>
    5cc8:	eaffff5a 	b	5a38 <_malloc_r+0x460>
    5ccc:	e59a3004 	ldr	r3, [sl, #4]
    5cd0:	e1e02000 	mvn	r2, r0
    5cd4:	e0033002 	and	r3, r3, r2
    5cd8:	e58a3004 	str	r3, [sl, #4]
    5cdc:	eaffffd2 	b	5c2c <_malloc_r+0x654>
    5ce0:	e1a00008 	mov	r0, r8
    5ce4:	eb0000d4 	bl	603c <__malloc_unlock>
    5ce8:	e3a05000 	mov	r5, #0	; 0x0
    5cec:	eafffe60 	b	5674 <_malloc_r+0x9c>
    5cf0:	00200414 	.word	0x00200414
    5cf4:	0020041c 	.word	0x0020041c
    5cf8:	00200830 	.word	0x00200830
    5cfc:	00200820 	.word	0x00200820
    5d00:	0020083c 	.word	0x0020083c
    5d04:	00200834 	.word	0x00200834
    5d08:	00200838 	.word	0x00200838

00005d0c <memchr>:
    5d0c:	e92d0030 	push	{r4, r5}
    5d10:	e1a04002 	mov	r4, r2
    5d14:	e3540003 	cmp	r4, #3	; 0x3
    5d18:	e1a02000 	mov	r2, r0
    5d1c:	e20110ff 	and	r1, r1, #255	; 0xff
    5d20:	9a000038 	bls	5e08 <memchr+0xfc>
    5d24:	e2123003 	ands	r3, r2, #3	; 0x3
    5d28:	0a00000d 	beq	5d64 <memchr+0x58>
    5d2c:	e5d03000 	ldrb	r3, [r0]
    5d30:	e1530001 	cmp	r3, r1
    5d34:	12442001 	subne	r2, r4, #1	; 0x1
    5d38:	1a000003 	bne	5d4c <memchr+0x40>
    5d3c:	ea000006 	b	5d5c <memchr+0x50>
    5d40:	e5f03001 	ldrb	r3, [r0, #1]!
    5d44:	e1530001 	cmp	r3, r1
    5d48:	0a000003 	beq	5d5c <memchr+0x50>
    5d4c:	e3520000 	cmp	r2, #0	; 0x0
    5d50:	e2422001 	sub	r2, r2, #1	; 0x1
    5d54:	1afffff9 	bne	5d40 <memchr+0x34>
    5d58:	e3a00000 	mov	r0, #0	; 0x0
    5d5c:	e8bd0030 	pop	{r4, r5}
    5d60:	e12fff1e 	bx	lr
    5d64:	e1a05003 	mov	r5, r3
    5d68:	e1a0c003 	mov	ip, r3
    5d6c:	e28cc001 	add	ip, ip, #1	; 0x1
    5d70:	e1a03405 	lsl	r3, r5, #8
    5d74:	e35c0004 	cmp	ip, #4	; 0x4
    5d78:	e0835001 	add	r5, r3, r1
    5d7c:	1afffffa 	bne	5d6c <memchr+0x60>
    5d80:	e1a00002 	mov	r0, r2
    5d84:	e5902000 	ldr	r2, [r0]
    5d88:	e0252002 	eor	r2, r5, r2
    5d8c:	e28234ff 	add	r3, r2, #-16777216	; 0xff000000
    5d90:	e2433801 	sub	r3, r3, #65536	; 0x10000
    5d94:	e2433c01 	sub	r3, r3, #256	; 0x100
    5d98:	e2433001 	sub	r3, r3, #1	; 0x1
    5d9c:	e1e02002 	mvn	r2, r2
    5da0:	e0033002 	and	r3, r3, r2
    5da4:	e3c3347f 	bic	r3, r3, #2130706432	; 0x7f000000
    5da8:	e3c3387f 	bic	r3, r3, #8323072	; 0x7f0000
    5dac:	e3c33c7f 	bic	r3, r3, #32512	; 0x7f00
    5db0:	e3c3307f 	bic	r3, r3, #127	; 0x7f
    5db4:	e3530000 	cmp	r3, #0	; 0x0
    5db8:	e2444004 	sub	r4, r4, #4	; 0x4
    5dbc:	0a00000e 	beq	5dfc <memchr+0xf0>
    5dc0:	e5d03000 	ldrb	r3, [r0]
    5dc4:	e1530001 	cmp	r3, r1
    5dc8:	0a000012 	beq	5e18 <memchr+0x10c>
    5dcc:	e5d03001 	ldrb	r3, [r0, #1]
    5dd0:	e1530001 	cmp	r3, r1
    5dd4:	e2803001 	add	r3, r0, #1	; 0x1
    5dd8:	0a00000f 	beq	5e1c <memchr+0x110>
    5ddc:	e5d03002 	ldrb	r3, [r0, #2]
    5de0:	e1530001 	cmp	r3, r1
    5de4:	e2803002 	add	r3, r0, #2	; 0x2
    5de8:	0a00000b 	beq	5e1c <memchr+0x110>
    5dec:	e5d03003 	ldrb	r3, [r0, #3]
    5df0:	e1530001 	cmp	r3, r1
    5df4:	e2803003 	add	r3, r0, #3	; 0x3
    5df8:	0a000007 	beq	5e1c <memchr+0x110>
    5dfc:	e3540003 	cmp	r4, #3	; 0x3
    5e00:	e2800004 	add	r0, r0, #4	; 0x4
    5e04:	8affffde 	bhi	5d84 <memchr+0x78>
    5e08:	e3540000 	cmp	r4, #0	; 0x0
    5e0c:	1affffc6 	bne	5d2c <memchr+0x20>
    5e10:	e3a00000 	mov	r0, #0	; 0x0
    5e14:	eaffffd0 	b	5d5c <memchr+0x50>
    5e18:	e1a03000 	mov	r3, r0
    5e1c:	e1a00003 	mov	r0, r3
    5e20:	eaffffcd 	b	5d5c <memchr+0x50>

00005e24 <memmove>:
    5e24:	e92d0070 	push	{r4, r5, r6}
    5e28:	e1500001 	cmp	r0, r1
    5e2c:	e1a04002 	mov	r4, r2
    5e30:	e1a05001 	mov	r5, r1
    5e34:	e1a02001 	mov	r2, r1
    5e38:	e1a06000 	mov	r6, r0
    5e3c:	e1a01004 	mov	r1, r4
    5e40:	9a000010 	bls	5e88 <memmove+0x64>
    5e44:	e085c004 	add	ip, r5, r4
    5e48:	e156000c 	cmp	r6, ip
    5e4c:	2a00000d 	bcs	5e88 <memmove+0x64>
    5e50:	e3540000 	cmp	r4, #0	; 0x0
    5e54:	0a000008 	beq	5e7c <memmove+0x58>
    5e58:	e2643000 	rsb	r3, r4, #0	; 0x0
    5e5c:	e0862004 	add	r2, r6, r4
    5e60:	e0821003 	add	r1, r2, r3
    5e64:	e08cc003 	add	ip, ip, r3
    5e68:	e2442001 	sub	r2, r4, #1	; 0x1
    5e6c:	e7dc3002 	ldrb	r3, [ip, r2]
    5e70:	e7c13002 	strb	r3, [r1, r2]
    5e74:	e2522001 	subs	r2, r2, #1	; 0x1
    5e78:	2afffffb 	bcs	5e6c <memmove+0x48>
    5e7c:	e1a00006 	mov	r0, r6
    5e80:	e8bd0070 	pop	{r4, r5, r6}
    5e84:	e12fff1e 	bx	lr
    5e88:	e354000f 	cmp	r4, #15	; 0xf
    5e8c:	8a000008 	bhi	5eb4 <memmove+0x90>
    5e90:	e3510000 	cmp	r1, #0	; 0x0
    5e94:	0afffff8 	beq	5e7c <memmove+0x58>
    5e98:	e3a0c000 	mov	ip, #0	; 0x0
    5e9c:	e7d2300c 	ldrb	r3, [r2, ip]
    5ea0:	e7c0300c 	strb	r3, [r0, ip]
    5ea4:	e28cc001 	add	ip, ip, #1	; 0x1
    5ea8:	e15c0001 	cmp	ip, r1
    5eac:	1afffffa 	bne	5e9c <memmove+0x78>
    5eb0:	eafffff1 	b	5e7c <memmove+0x58>
    5eb4:	e1853006 	orr	r3, r5, r6
    5eb8:	e3130003 	tst	r3, #3	; 0x3
    5ebc:	1afffff3 	bne	5e90 <memmove+0x6c>
    5ec0:	e1a01005 	mov	r1, r5
    5ec4:	e1a0c006 	mov	ip, r6
    5ec8:	e1a00004 	mov	r0, r4
    5ecc:	e5913000 	ldr	r3, [r1]
    5ed0:	e58c3000 	str	r3, [ip]
    5ed4:	e5912004 	ldr	r2, [r1, #4]
    5ed8:	e58c2004 	str	r2, [ip, #4]
    5edc:	e5913008 	ldr	r3, [r1, #8]
    5ee0:	e58c3008 	str	r3, [ip, #8]
    5ee4:	e2400010 	sub	r0, r0, #16	; 0x10
    5ee8:	e591300c 	ldr	r3, [r1, #12]
    5eec:	e350000f 	cmp	r0, #15	; 0xf
    5ef0:	e58c300c 	str	r3, [ip, #12]
    5ef4:	e2811010 	add	r1, r1, #16	; 0x10
    5ef8:	e28cc010 	add	ip, ip, #16	; 0x10
    5efc:	8afffff2 	bhi	5ecc <memmove+0xa8>
    5f00:	e2442010 	sub	r2, r4, #16	; 0x10
    5f04:	e1a03222 	lsr	r3, r2, #4
    5f08:	e0421203 	sub	r1, r2, r3, lsl #4
    5f0c:	e2833001 	add	r3, r3, #1	; 0x1
    5f10:	e1a03203 	lsl	r3, r3, #4
    5f14:	e3510003 	cmp	r1, #3	; 0x3
    5f18:	e0855003 	add	r5, r5, r3
    5f1c:	e0864003 	add	r4, r6, r3
    5f20:	9a00000d 	bls	5f5c <memmove+0x138>
    5f24:	e3a0c000 	mov	ip, #0	; 0x0
    5f28:	e795300c 	ldr	r3, [r5, ip]
    5f2c:	e784300c 	str	r3, [r4, ip]
    5f30:	e28cc004 	add	ip, ip, #4	; 0x4
    5f34:	e06c3001 	rsb	r3, ip, r1
    5f38:	e3530003 	cmp	r3, #3	; 0x3
    5f3c:	8afffff9 	bhi	5f28 <memmove+0x104>
    5f40:	e2411004 	sub	r1, r1, #4	; 0x4
    5f44:	e1a02121 	lsr	r2, r1, #2
    5f48:	e2823001 	add	r3, r2, #1	; 0x1
    5f4c:	e1a03103 	lsl	r3, r3, #2
    5f50:	e0844003 	add	r4, r4, r3
    5f54:	e0411102 	sub	r1, r1, r2, lsl #2
    5f58:	e0855003 	add	r5, r5, r3
    5f5c:	e1a00004 	mov	r0, r4
    5f60:	e1a02005 	mov	r2, r5
    5f64:	eaffffc9 	b	5e90 <memmove+0x6c>

00005f68 <memset>:
    5f68:	e3520003 	cmp	r2, #3	; 0x3
    5f6c:	e92d0030 	push	{r4, r5}
    5f70:	e1a0c000 	mov	ip, r0
    5f74:	e1a04000 	mov	r4, r0
    5f78:	e20150ff 	and	r5, r1, #255	; 0xff
    5f7c:	9a000022 	bls	600c <memset+0xa4>
    5f80:	e3100003 	tst	r0, #3	; 0x3
    5f84:	1a000022 	bne	6014 <memset+0xac>
    5f88:	e352000f 	cmp	r2, #15	; 0xf
    5f8c:	e1853405 	orr	r3, r5, r5, lsl #8
    5f90:	e1831803 	orr	r1, r3, r3, lsl #16
    5f94:	81a0c002 	movhi	ip, r2
    5f98:	81a03004 	movhi	r3, r4
    5f9c:	9a00000e 	bls	5fdc <memset+0x74>
    5fa0:	e24cc010 	sub	ip, ip, #16	; 0x10
    5fa4:	e35c000f 	cmp	ip, #15	; 0xf
    5fa8:	e5831000 	str	r1, [r3]
    5fac:	e5831004 	str	r1, [r3, #4]
    5fb0:	e5831008 	str	r1, [r3, #8]
    5fb4:	e583100c 	str	r1, [r3, #12]
    5fb8:	e2833010 	add	r3, r3, #16	; 0x10
    5fbc:	8afffff7 	bhi	5fa0 <memset+0x38>
    5fc0:	e2422010 	sub	r2, r2, #16	; 0x10
    5fc4:	e3c2300f 	bic	r3, r2, #15	; 0xf
    5fc8:	e202200f 	and	r2, r2, #15	; 0xf
    5fcc:	e2833010 	add	r3, r3, #16	; 0x10
    5fd0:	e3520003 	cmp	r2, #3	; 0x3
    5fd4:	e0840003 	add	r0, r4, r3
    5fd8:	9a00000a 	bls	6008 <memset+0xa0>
    5fdc:	e3a0c000 	mov	ip, #0	; 0x0
    5fe0:	e780100c 	str	r1, [r0, ip]
    5fe4:	e28cc004 	add	ip, ip, #4	; 0x4
    5fe8:	e06c3002 	rsb	r3, ip, r2
    5fec:	e3530003 	cmp	r3, #3	; 0x3
    5ff0:	8afffffa 	bhi	5fe0 <memset+0x78>
    5ff4:	e2422004 	sub	r2, r2, #4	; 0x4
    5ff8:	e3c23003 	bic	r3, r2, #3	; 0x3
    5ffc:	e2833004 	add	r3, r3, #4	; 0x4
    6000:	e0800003 	add	r0, r0, r3
    6004:	e2022003 	and	r2, r2, #3	; 0x3
    6008:	e1a0c000 	mov	ip, r0
    600c:	e3520000 	cmp	r2, #0	; 0x0
    6010:	0a000005 	beq	602c <memset+0xc4>
    6014:	e20510ff 	and	r1, r5, #255	; 0xff
    6018:	e3a03000 	mov	r3, #0	; 0x0
    601c:	e7cc1003 	strb	r1, [ip, r3]
    6020:	e2833001 	add	r3, r3, #1	; 0x1
    6024:	e1530002 	cmp	r3, r2
    6028:	1afffffb 	bne	601c <memset+0xb4>
    602c:	e1a00004 	mov	r0, r4
    6030:	e8bd0030 	pop	{r4, r5}
    6034:	e12fff1e 	bx	lr

00006038 <__malloc_lock>:
    6038:	e12fff1e 	bx	lr

0000603c <__malloc_unlock>:
    603c:	e12fff1e 	bx	lr

00006040 <_Bfree>:
    6040:	e251c000 	subs	ip, r1, #0	; 0x0
    6044:	1590104c 	ldrne	r1, [r0, #76]
    6048:	159c2004 	ldrne	r2, [ip, #4]
    604c:	17913102 	ldrne	r3, [r1, r2, lsl #2]
    6050:	158c3000 	strne	r3, [ip]
    6054:	1781c102 	strne	ip, [r1, r2, lsl #2]
    6058:	e12fff1e 	bx	lr

0000605c <__hi0bits>:
    605c:	e1a03820 	lsr	r3, r0, #16
    6060:	e1a03803 	lsl	r3, r3, #16
    6064:	e3530000 	cmp	r3, #0	; 0x0
    6068:	01a00800 	lsleq	r0, r0, #16
    606c:	13a03000 	movne	r3, #0	; 0x0
    6070:	03a03010 	moveq	r3, #16	; 0x10
    6074:	e31004ff 	tst	r0, #-16777216	; 0xff000000
    6078:	01a00400 	lsleq	r0, r0, #8
    607c:	02833008 	addeq	r3, r3, #8	; 0x8
    6080:	e310020f 	tst	r0, #-268435456	; 0xf0000000
    6084:	01a00200 	lsleq	r0, r0, #4
    6088:	02833004 	addeq	r3, r3, #4	; 0x4
    608c:	e3100103 	tst	r0, #-1073741824	; 0xc0000000
    6090:	01a00100 	lsleq	r0, r0, #2
    6094:	02833002 	addeq	r3, r3, #2	; 0x2
    6098:	e3500000 	cmp	r0, #0	; 0x0
    609c:	ba000002 	blt	60ac <__hi0bits+0x50>
    60a0:	e3100101 	tst	r0, #1073741824	; 0x40000000
    60a4:	03a03020 	moveq	r3, #32	; 0x20
    60a8:	12833001 	addne	r3, r3, #1	; 0x1
    60ac:	e1a00003 	mov	r0, r3
    60b0:	e12fff1e 	bx	lr

000060b4 <__lo0bits>:
    60b4:	e5902000 	ldr	r2, [r0]
    60b8:	e1a01000 	mov	r1, r0
    60bc:	e2120007 	ands	r0, r2, #7	; 0x7
    60c0:	0a00000a 	beq	60f0 <__lo0bits+0x3c>
    60c4:	e3120001 	tst	r2, #1	; 0x1
    60c8:	13a00000 	movne	r0, #0	; 0x0
    60cc:	112fff1e 	bxne	lr
    60d0:	e3120002 	tst	r2, #2	; 0x2
    60d4:	11a030a2 	lsrne	r3, r2, #1
    60d8:	01a03122 	lsreq	r3, r2, #2
    60dc:	15813000 	strne	r3, [r1]
    60e0:	13a00001 	movne	r0, #1	; 0x1
    60e4:	05813000 	streq	r3, [r1]
    60e8:	03a00002 	moveq	r0, #2	; 0x2
    60ec:	e12fff1e 	bx	lr
    60f0:	e1a03802 	lsl	r3, r2, #16
    60f4:	e1a03823 	lsr	r3, r3, #16
    60f8:	e3530000 	cmp	r3, #0	; 0x0
    60fc:	01a02822 	lsreq	r2, r2, #16
    6100:	03a00010 	moveq	r0, #16	; 0x10
    6104:	e31200ff 	tst	r2, #255	; 0xff
    6108:	01a02422 	lsreq	r2, r2, #8
    610c:	02800008 	addeq	r0, r0, #8	; 0x8
    6110:	e312000f 	tst	r2, #15	; 0xf
    6114:	01a02222 	lsreq	r2, r2, #4
    6118:	02800004 	addeq	r0, r0, #4	; 0x4
    611c:	e3120003 	tst	r2, #3	; 0x3
    6120:	01a02122 	lsreq	r2, r2, #2
    6124:	02800002 	addeq	r0, r0, #2	; 0x2
    6128:	e3120001 	tst	r2, #1	; 0x1
    612c:	1a000003 	bne	6140 <__lo0bits+0x8c>
    6130:	e1b020a2 	lsrs	r2, r2, #1
    6134:	03a00020 	moveq	r0, #32	; 0x20
    6138:	012fff1e 	bxeq	lr
    613c:	e2800001 	add	r0, r0, #1	; 0x1
    6140:	e5812000 	str	r2, [r1]
    6144:	e12fff1e 	bx	lr

00006148 <__mcmp>:
    6148:	e5903010 	ldr	r3, [r0, #16]
    614c:	e5912010 	ldr	r2, [r1, #16]
    6150:	e52d4004 	push	{r4}		; (str r4, [sp, #-4]!)
    6154:	e0534002 	subs	r4, r3, r2
    6158:	1a00000c 	bne	6190 <__mcmp+0x48>
    615c:	e2823005 	add	r3, r2, #5	; 0x5
    6160:	e1a03103 	lsl	r3, r3, #2
    6164:	e080c003 	add	ip, r0, r3
    6168:	e0811003 	add	r1, r1, r3
    616c:	e2800014 	add	r0, r0, #20	; 0x14
    6170:	e51c2004 	ldr	r2, [ip, #-4]
    6174:	e5113004 	ldr	r3, [r1, #-4]
    6178:	e1520003 	cmp	r2, r3
    617c:	e24cc004 	sub	ip, ip, #4	; 0x4
    6180:	e2411004 	sub	r1, r1, #4	; 0x4
    6184:	1a000004 	bne	619c <__mcmp+0x54>
    6188:	e150000c 	cmp	r0, ip
    618c:	3afffff7 	bcc	6170 <__mcmp+0x28>
    6190:	e1a00004 	mov	r0, r4
    6194:	e8bd0010 	pop	{r4}
    6198:	e12fff1e 	bx	lr
    619c:	23a04001 	movcs	r4, #1	; 0x1
    61a0:	33e04000 	mvncc	r4, #0	; 0x0
    61a4:	eafffff9 	b	6190 <__mcmp+0x48>

000061a8 <__ulp>:
    61a8:	e3c00102 	bic	r0, r0, #-2147483648	; 0x80000000
    61ac:	e1a00a20 	lsr	r0, r0, #20
    61b0:	e1a00a00 	lsl	r0, r0, #20
    61b4:	e240350d 	sub	r3, r0, #54525952	; 0x3400000
    61b8:	e3530000 	cmp	r3, #0	; 0x0
    61bc:	c1a00003 	movgt	r0, r3
    61c0:	c3a01000 	movgt	r1, #0	; 0x0
    61c4:	c12fff1e 	bxgt	lr
    61c8:	e2633000 	rsb	r3, r3, #0	; 0x0
    61cc:	e1a02a43 	asr	r2, r3, #20
    61d0:	e3520013 	cmp	r2, #19	; 0x13
    61d4:	d3a03702 	movle	r3, #524288	; 0x80000
    61d8:	d1a00253 	asrle	r0, r3, r2
    61dc:	d3a01000 	movle	r1, #0	; 0x0
    61e0:	d12fff1e 	bxle	lr
    61e4:	e2420014 	sub	r0, r2, #20	; 0x14
    61e8:	e350001e 	cmp	r0, #30	; 0x1e
    61ec:	d260201f 	rsble	r2, r0, #31	; 0x1f
    61f0:	d3a03001 	movle	r3, #1	; 0x1
    61f4:	d1a03213 	lslle	r3, r3, r2
    61f8:	c3a03001 	movgt	r3, #1	; 0x1
    61fc:	e3a00000 	mov	r0, #0	; 0x0
    6200:	e1a01003 	mov	r1, r3
    6204:	e12fff1e 	bx	lr

00006208 <__b2d>:
    6208:	e5903010 	ldr	r3, [r0, #16]
    620c:	e2833005 	add	r3, r3, #5	; 0x5
    6210:	e1a03103 	lsl	r3, r3, #2
    6214:	e0803003 	add	r3, r0, r3
    6218:	e92d40f0 	push	{r4, r5, r6, r7, lr}
    621c:	e5137004 	ldr	r7, [r3, #-4]
    6220:	e1a02000 	mov	r2, r0
    6224:	e1a00007 	mov	r0, r7
    6228:	e1a04001 	mov	r4, r1
    622c:	e2826014 	add	r6, r2, #20	; 0x14
    6230:	e2435004 	sub	r5, r3, #4	; 0x4
    6234:	ebffff88 	bl	605c <__hi0bits>
    6238:	e2603020 	rsb	r3, r0, #32	; 0x20
    623c:	e350000a 	cmp	r0, #10	; 0xa
    6240:	e1a02000 	mov	r2, r0
    6244:	e5843000 	str	r3, [r4]
    6248:	ca00000a 	bgt	6278 <__b2d+0x70>
    624c:	e1560005 	cmp	r6, r5
    6250:	35153004 	ldrcc	r3, [r5, #-4]
    6254:	e260100b 	rsb	r1, r0, #11	; 0xb
    6258:	31a0c133 	lsrcc	ip, r3, r1
    625c:	e1a03137 	lsr	r3, r7, r1
    6260:	23a0c000 	movcs	ip, #0	; 0x0
    6264:	e38305ff 	orr	r0, r3, #1069547520	; 0x3fc00000
    6268:	e2822015 	add	r2, r2, #21	; 0x15
    626c:	e3800603 	orr	r0, r0, #3145728	; 0x300000
    6270:	e18c1217 	orr	r1, ip, r7, lsl r2
    6274:	e8bd80f0 	pop	{r4, r5, r6, r7, pc}
    6278:	e1560005 	cmp	r6, r5
    627c:	23a0c000 	movcs	ip, #0	; 0x0
    6280:	3535c004 	ldrcc	ip, [r5, #-4]!
    6284:	e250200b 	subs	r2, r0, #11	; 0xb
    6288:	0a00000a 	beq	62b8 <__b2d+0xb0>
    628c:	e1550006 	cmp	r5, r6
    6290:	85153004 	ldrhi	r3, [r5, #-4]
    6294:	e262e020 	rsb	lr, r2, #32	; 0x20
    6298:	81a04e33 	lsrhi	r4, r3, lr
    629c:	e1a03217 	lsl	r3, r7, r2
    62a0:	e38335ff 	orr	r3, r3, #1069547520	; 0x3fc00000
    62a4:	93a04000 	movls	r4, #0	; 0x0
    62a8:	e3833603 	orr	r3, r3, #3145728	; 0x300000
    62ac:	e1830e3c 	orr	r0, r3, ip, lsr lr
    62b0:	e184121c 	orr	r1, r4, ip, lsl r2
    62b4:	e8bd80f0 	pop	{r4, r5, r6, r7, pc}
    62b8:	e38705ff 	orr	r0, r7, #1069547520	; 0x3fc00000
    62bc:	e3800603 	orr	r0, r0, #3145728	; 0x300000
    62c0:	e1a0100c 	mov	r1, ip
    62c4:	e8bd80f0 	pop	{r4, r5, r6, r7, pc}

000062c8 <__ratio>:
    62c8:	e92d43f0 	push	{r4, r5, r6, r7, r8, r9, lr}
    62cc:	e24dd008 	sub	sp, sp, #8	; 0x8
    62d0:	e1a04001 	mov	r4, r1
    62d4:	e28d1004 	add	r1, sp, #4	; 0x4
    62d8:	e1a05000 	mov	r5, r0
    62dc:	ebffffc9 	bl	6208 <__b2d>
    62e0:	e1a06000 	mov	r6, r0
    62e4:	e1a07001 	mov	r7, r1
    62e8:	e1a00004 	mov	r0, r4
    62ec:	e1a0100d 	mov	r1, sp
    62f0:	ebffffc4 	bl	6208 <__b2d>
    62f4:	e5943010 	ldr	r3, [r4, #16]
    62f8:	e5952010 	ldr	r2, [r5, #16]
    62fc:	e1a09001 	mov	r9, r1
    6300:	e0632002 	rsb	r2, r3, r2
    6304:	e89d000a 	ldm	sp, {r1, r3}
    6308:	e1a02282 	lsl	r2, r2, #5
    630c:	e0613003 	rsb	r3, r1, r3
    6310:	e0833002 	add	r3, r3, r2
    6314:	e3530000 	cmp	r3, #0	; 0x0
    6318:	e1a08000 	mov	r8, r0
    631c:	c1a03a03 	lslgt	r3, r3, #20
    6320:	c0836006 	addgt	r6, r3, r6
    6324:	d0488a03 	suble	r8, r8, r3, lsl #20
    6328:	e1a00006 	mov	r0, r6
    632c:	e1a01007 	mov	r1, r7
    6330:	e1a02008 	mov	r2, r8
    6334:	e1a03009 	mov	r3, r9
    6338:	eb0009db 	bl	8aac <__aeabi_ddiv>
    633c:	e28dd008 	add	sp, sp, #8	; 0x8
    6340:	e8bd83f0 	pop	{r4, r5, r6, r7, r8, r9, pc}

00006344 <_mprec_log10>:
    6344:	e3500017 	cmp	r0, #23	; 0x17
    6348:	e92d4010 	push	{r4, lr}
    634c:	e1a04000 	mov	r4, r0
    6350:	c3a005ff 	movgt	r0, #1069547520	; 0x3fc00000
    6354:	c2800603 	addgt	r0, r0, #3145728	; 0x300000
    6358:	c3a01000 	movgt	r1, #0	; 0x0
    635c:	da000007 	ble	6380 <_mprec_log10+0x3c>
    6360:	e3a02101 	mov	r2, #1073741824	; 0x40000000
    6364:	e2444001 	sub	r4, r4, #1	; 0x1
    6368:	e2822709 	add	r2, r2, #2359296	; 0x240000
    636c:	e3a03000 	mov	r3, #0	; 0x0
    6370:	eb000932 	bl	8840 <__aeabi_dmul>
    6374:	e3540000 	cmp	r4, #0	; 0x0
    6378:	cafffff8 	bgt	6360 <_mprec_log10+0x1c>
    637c:	e8bd8010 	pop	{r4, pc}
    6380:	e59f300c 	ldr	r3, [pc, #12]	; 6394 <_mprec_log10+0x50>
    6384:	e1a02184 	lsl	r2, r4, #3
    6388:	e0833002 	add	r3, r3, r2
    638c:	e8930003 	ldm	r3, {r0, r1}
    6390:	e8bd8010 	pop	{r4, pc}
    6394:	00008ea8 	.word	0x00008ea8

00006398 <__copybits>:
    6398:	e5923010 	ldr	r3, [r2, #16]
    639c:	e2411001 	sub	r1, r1, #1	; 0x1
    63a0:	e2833005 	add	r3, r3, #5	; 0x5
    63a4:	e92d0030 	push	{r4, r5}
    63a8:	e1a012c1 	asr	r1, r1, #5
    63ac:	e1a05002 	mov	r5, r2
    63b0:	e1a03103 	lsl	r3, r3, #2
    63b4:	e2811001 	add	r1, r1, #1	; 0x1
    63b8:	e0822003 	add	r2, r2, r3
    63bc:	e285c014 	add	ip, r5, #20	; 0x14
    63c0:	e1a01101 	lsl	r1, r1, #2
    63c4:	e15c0002 	cmp	ip, r2
    63c8:	e0804001 	add	r4, r0, r1
    63cc:	2a00000b 	bcs	6400 <__copybits+0x68>
    63d0:	e3a01000 	mov	r1, #0	; 0x0
    63d4:	e79c3001 	ldr	r3, [ip, r1]
    63d8:	e7803001 	str	r3, [r0, r1]
    63dc:	e2811004 	add	r1, r1, #4	; 0x4
    63e0:	e08c3001 	add	r3, ip, r1
    63e4:	e1520003 	cmp	r2, r3
    63e8:	8afffff9 	bhi	63d4 <__copybits+0x3c>
    63ec:	e0653002 	rsb	r3, r5, r2
    63f0:	e2433015 	sub	r3, r3, #21	; 0x15
    63f4:	e3c33003 	bic	r3, r3, #3	; 0x3
    63f8:	e2833004 	add	r3, r3, #4	; 0x4
    63fc:	e0800003 	add	r0, r0, r3
    6400:	e1540000 	cmp	r4, r0
    6404:	9a000003 	bls	6418 <__copybits+0x80>
    6408:	e3a03000 	mov	r3, #0	; 0x0
    640c:	e4803004 	str	r3, [r0], #4
    6410:	e1540000 	cmp	r4, r0
    6414:	8afffffc 	bhi	640c <__copybits+0x74>
    6418:	e8bd0030 	pop	{r4, r5}
    641c:	e12fff1e 	bx	lr

00006420 <__any_on>:
    6420:	e5902010 	ldr	r2, [r0, #16]
    6424:	e1a032c1 	asr	r3, r1, #5
    6428:	e1520003 	cmp	r2, r3
    642c:	e52d4004 	push	{r4}		; (str r4, [sp, #-4]!)
    6430:	b1a0c002 	movlt	ip, r2
    6434:	ba00000c 	blt	646c <__any_on+0x4c>
    6438:	da00000a 	ble	6468 <__any_on+0x48>
    643c:	e211401f 	ands	r4, r1, #31	; 0x1f
    6440:	0a000008 	beq	6468 <__any_on+0x48>
    6444:	e1a0c003 	mov	ip, r3
    6448:	e2833005 	add	r3, r3, #5	; 0x5
    644c:	e7901103 	ldr	r1, [r0, r3, lsl #2]
    6450:	e1a02431 	lsr	r2, r1, r4
    6454:	e1510412 	cmp	r1, r2, lsl r4
    6458:	0a000003 	beq	646c <__any_on+0x4c>
    645c:	e3a00001 	mov	r0, #1	; 0x1
    6460:	e8bd0010 	pop	{r4}
    6464:	e12fff1e 	bx	lr
    6468:	e1a0c003 	mov	ip, r3
    646c:	e28c3005 	add	r3, ip, #5	; 0x5
    6470:	e1a03103 	lsl	r3, r3, #2
    6474:	e0802003 	add	r2, r0, r3
    6478:	e2800014 	add	r0, r0, #20	; 0x14
    647c:	e1500002 	cmp	r0, r2
    6480:	2a00000b 	bcs	64b4 <__any_on+0x94>
    6484:	e5123004 	ldr	r3, [r2, #-4]
    6488:	e3530000 	cmp	r3, #0	; 0x0
    648c:	e2423004 	sub	r3, r2, #4	; 0x4
    6490:	01a02003 	moveq	r2, r3
    6494:	1afffff0 	bne	645c <__any_on+0x3c>
    6498:	e1500002 	cmp	r0, r2
    649c:	2a000004 	bcs	64b4 <__any_on+0x94>
    64a0:	e5323004 	ldr	r3, [r2, #-4]!
    64a4:	e3530000 	cmp	r3, #0	; 0x0
    64a8:	1affffeb 	bne	645c <__any_on+0x3c>
    64ac:	e1500002 	cmp	r0, r2
    64b0:	3afffffa 	bcc	64a0 <__any_on+0x80>
    64b4:	e3a00000 	mov	r0, #0	; 0x0
    64b8:	eaffffe8 	b	6460 <__any_on+0x40>

000064bc <_Balloc>:
    64bc:	e590204c 	ldr	r2, [r0, #76]
    64c0:	e3520000 	cmp	r2, #0	; 0x0
    64c4:	e92d4070 	push	{r4, r5, r6, lr}
    64c8:	e1a05000 	mov	r5, r0
    64cc:	e1a04001 	mov	r4, r1
    64d0:	0a000008 	beq	64f8 <_Balloc+0x3c>
    64d4:	e7920104 	ldr	r0, [r2, r4, lsl #2]
    64d8:	e3500000 	cmp	r0, #0	; 0x0
    64dc:	15903000 	ldrne	r3, [r0]
    64e0:	17823104 	strne	r3, [r2, r4, lsl #2]
    64e4:	0a00000b 	beq	6518 <_Balloc+0x5c>
    64e8:	e3a03000 	mov	r3, #0	; 0x0
    64ec:	e580300c 	str	r3, [r0, #12]
    64f0:	e5803010 	str	r3, [r0, #16]
    64f4:	e8bd8070 	pop	{r4, r5, r6, pc}
    64f8:	e2822010 	add	r2, r2, #16	; 0x10
    64fc:	e3a01004 	mov	r1, #4	; 0x4
    6500:	eb000679 	bl	7eec <_calloc_r>
    6504:	e3500000 	cmp	r0, #0	; 0x0
    6508:	e585004c 	str	r0, [r5, #76]
    650c:	e1a02000 	mov	r2, r0
    6510:	1affffef 	bne	64d4 <_Balloc+0x18>
    6514:	e8bd8070 	pop	{r4, r5, r6, pc}
    6518:	e3a01001 	mov	r1, #1	; 0x1
    651c:	e1a06411 	lsl	r6, r1, r4
    6520:	e2862005 	add	r2, r6, #5	; 0x5
    6524:	e1a00005 	mov	r0, r5
    6528:	e1a02102 	lsl	r2, r2, #2
    652c:	eb00066e 	bl	7eec <_calloc_r>
    6530:	e3500000 	cmp	r0, #0	; 0x0
    6534:	08bd8070 	popeq	{r4, r5, r6, pc}
    6538:	e9800050 	stmib	r0, {r4, r6}
    653c:	eaffffe9 	b	64e8 <_Balloc+0x2c>

00006540 <__d2b>:
    6540:	e92d41f0 	push	{r4, r5, r6, r7, r8, lr}
    6544:	e1a04001 	mov	r4, r1
    6548:	e24dd008 	sub	sp, sp, #8	; 0x8
    654c:	e3a01001 	mov	r1, #1	; 0x1
    6550:	e1a05002 	mov	r5, r2
    6554:	e1a08003 	mov	r8, r3
    6558:	ebffffd7 	bl	64bc <_Balloc>
    655c:	e3c42102 	bic	r2, r4, #-2147483648	; 0x80000000
    6560:	e3c434ff 	bic	r3, r4, #-16777216	; 0xff000000
    6564:	e3c3360f 	bic	r3, r3, #15728640	; 0xf00000
    6568:	e1b07a22 	lsrs	r7, r2, #20
    656c:	e58d3000 	str	r3, [sp]
    6570:	13833601 	orrne	r3, r3, #1048576	; 0x100000
    6574:	158d3000 	strne	r3, [sp]
    6578:	e3550000 	cmp	r5, #0	; 0x0
    657c:	e1a06000 	mov	r6, r0
    6580:	e1a04002 	mov	r4, r2
    6584:	0a00001e 	beq	6604 <__d2b+0xc4>
    6588:	e28d0008 	add	r0, sp, #8	; 0x8
    658c:	e5205004 	str	r5, [r0, #-4]!
    6590:	ebfffec7 	bl	60b4 <__lo0bits>
    6594:	e3500000 	cmp	r0, #0	; 0x0
    6598:	159d3000 	ldrne	r3, [sp]
    659c:	159d2004 	ldrne	r2, [sp, #4]
    65a0:	12601020 	rsbne	r1, r0, #32	; 0x20
    65a4:	11822113 	orrne	r2, r2, r3, lsl r1
    65a8:	11a03033 	lsrne	r3, r3, r0
    65ac:	059d3004 	ldreq	r3, [sp, #4]
    65b0:	15862014 	strne	r2, [r6, #20]
    65b4:	05863014 	streq	r3, [r6, #20]
    65b8:	158d3000 	strne	r3, [sp]
    65bc:	e59d3000 	ldr	r3, [sp]
    65c0:	e3530000 	cmp	r3, #0	; 0x0
    65c4:	13a04002 	movne	r4, #2	; 0x2
    65c8:	03a04001 	moveq	r4, #1	; 0x1
    65cc:	e3570000 	cmp	r7, #0	; 0x0
    65d0:	e5863018 	str	r3, [r6, #24]
    65d4:	e5864010 	str	r4, [r6, #16]
    65d8:	0a000013 	beq	662c <__d2b+0xec>
    65dc:	e2473e43 	sub	r3, r7, #1072	; 0x430
    65e0:	e2433003 	sub	r3, r3, #3	; 0x3
    65e4:	e0833000 	add	r3, r3, r0
    65e8:	e5883000 	str	r3, [r8]
    65ec:	e59d3020 	ldr	r3, [sp, #32]
    65f0:	e2602035 	rsb	r2, r0, #53	; 0x35
    65f4:	e5832000 	str	r2, [r3]
    65f8:	e1a00006 	mov	r0, r6
    65fc:	e28dd008 	add	sp, sp, #8	; 0x8
    6600:	e8bd81f0 	pop	{r4, r5, r6, r7, r8, pc}
    6604:	e1a0000d 	mov	r0, sp
    6608:	ebfffea9 	bl	60b4 <__lo0bits>
    660c:	e59d3000 	ldr	r3, [sp]
    6610:	e3a02001 	mov	r2, #1	; 0x1
    6614:	e3570000 	cmp	r7, #0	; 0x0
    6618:	e5863014 	str	r3, [r6, #20]
    661c:	e5862010 	str	r2, [r6, #16]
    6620:	e2800020 	add	r0, r0, #32	; 0x20
    6624:	e1a04002 	mov	r4, r2
    6628:	1affffeb 	bne	65dc <__d2b+0x9c>
    662c:	e2403e43 	sub	r3, r0, #1072	; 0x430
    6630:	e1a02104 	lsl	r2, r4, #2
    6634:	e2433002 	sub	r3, r3, #2	; 0x2
    6638:	e0862002 	add	r2, r6, r2
    663c:	e5883000 	str	r3, [r8]
    6640:	e5920010 	ldr	r0, [r2, #16]
    6644:	ebfffe84 	bl	605c <__hi0bits>
    6648:	e1a03284 	lsl	r3, r4, #5
    664c:	e59d2020 	ldr	r2, [sp, #32]
    6650:	e0603003 	rsb	r3, r0, r3
    6654:	e5823000 	str	r3, [r2]
    6658:	eaffffe6 	b	65f8 <__d2b+0xb8>

0000665c <__mdiff>:
    665c:	e92d47f0 	push	{r4, r5, r6, r7, r8, r9, sl, lr}
    6660:	e5913010 	ldr	r3, [r1, #16]
    6664:	e1a05002 	mov	r5, r2
    6668:	e5922010 	ldr	r2, [r2, #16]
    666c:	e0628003 	rsb	r8, r2, r3
    6670:	e3580000 	cmp	r8, #0	; 0x0
    6674:	e1a04001 	mov	r4, r1
    6678:	0a00003b 	beq	676c <__mdiff+0x110>
    667c:	a3a08000 	movge	r8, #0	; 0x0
    6680:	a2817014 	addge	r7, r1, #20	; 0x14
    6684:	ba00004f 	blt	67c8 <__mdiff+0x16c>
    6688:	e5941004 	ldr	r1, [r4, #4]
    668c:	ebffff8a 	bl	64bc <_Balloc>
    6690:	e5946010 	ldr	r6, [r4, #16]
    6694:	e5952010 	ldr	r2, [r5, #16]
    6698:	e2863005 	add	r3, r6, #5	; 0x5
    669c:	e2822005 	add	r2, r2, #5	; 0x5
    66a0:	e1a03103 	lsl	r3, r3, #2
    66a4:	e1a02102 	lsl	r2, r2, #2
    66a8:	e580800c 	str	r8, [r0, #12]
    66ac:	e084a003 	add	sl, r4, r3
    66b0:	e0858002 	add	r8, r5, r2
    66b4:	e1a09000 	mov	r9, r0
    66b8:	e1a04007 	mov	r4, r7
    66bc:	e2855014 	add	r5, r5, #20	; 0x14
    66c0:	e280c014 	add	ip, r0, #20	; 0x14
    66c4:	e3a0e000 	mov	lr, #0	; 0x0
    66c8:	e4952004 	ldr	r2, [r5], #4
    66cc:	e4940004 	ldr	r0, [r4], #4
    66d0:	e1a01802 	lsl	r1, r2, #16
    66d4:	e1a03800 	lsl	r3, r0, #16
    66d8:	e1a03823 	lsr	r3, r3, #16
    66dc:	e1a01821 	lsr	r1, r1, #16
    66e0:	e0613003 	rsb	r3, r1, r3
    66e4:	e1a02822 	lsr	r2, r2, #16
    66e8:	e083300e 	add	r3, r3, lr
    66ec:	e0622820 	rsb	r2, r2, r0, lsr #16
    66f0:	e0822843 	add	r2, r2, r3, asr #16
    66f4:	e1580005 	cmp	r8, r5
    66f8:	e1cc20b2 	strh	r2, [ip, #2]
    66fc:	e1a0e842 	asr	lr, r2, #16
    6700:	e0cc30b4 	strh	r3, [ip], #4
    6704:	8affffef 	bhi	66c8 <__mdiff+0x6c>
    6708:	e154000a 	cmp	r4, sl
    670c:	2a00000a 	bcs	673c <__mdiff+0xe0>
    6710:	e4943004 	ldr	r3, [r4], #4
    6714:	e1a02803 	lsl	r2, r3, #16
    6718:	e1a02822 	lsr	r2, r2, #16
    671c:	e08e2002 	add	r2, lr, r2
    6720:	e1a03823 	lsr	r3, r3, #16
    6724:	e0833842 	add	r3, r3, r2, asr #16
    6728:	e15a0004 	cmp	sl, r4
    672c:	e1cc30b2 	strh	r3, [ip, #2]
    6730:	e1a0e843 	asr	lr, r3, #16
    6734:	e0cc20b4 	strh	r2, [ip], #4
    6738:	8afffff4 	bhi	6710 <__mdiff+0xb4>
    673c:	e51c3004 	ldr	r3, [ip, #-4]
    6740:	e3530000 	cmp	r3, #0	; 0x0
    6744:	1a000005 	bne	6760 <__mdiff+0x104>
    6748:	e1a0200c 	mov	r2, ip
    674c:	e5123008 	ldr	r3, [r2, #-8]
    6750:	e3530000 	cmp	r3, #0	; 0x0
    6754:	e2466001 	sub	r6, r6, #1	; 0x1
    6758:	e2422004 	sub	r2, r2, #4	; 0x4
    675c:	0afffffa 	beq	674c <__mdiff+0xf0>
    6760:	e5896010 	str	r6, [r9, #16]
    6764:	e1a00009 	mov	r0, r9
    6768:	e8bd87f0 	pop	{r4, r5, r6, r7, r8, r9, sl, pc}
    676c:	e2823005 	add	r3, r2, #5	; 0x5
    6770:	e1a03103 	lsl	r3, r3, #2
    6774:	e2817014 	add	r7, r1, #20	; 0x14
    6778:	e085c003 	add	ip, r5, r3
    677c:	e0811003 	add	r1, r1, r3
    6780:	e5112004 	ldr	r2, [r1, #-4]
    6784:	e51c3004 	ldr	r3, [ip, #-4]
    6788:	e1520003 	cmp	r2, r3
    678c:	e2411004 	sub	r1, r1, #4	; 0x4
    6790:	e24cc004 	sub	ip, ip, #4	; 0x4
    6794:	1a00000a 	bne	67c4 <__mdiff+0x168>
    6798:	e1570001 	cmp	r7, r1
    679c:	3afffff7 	bcc	6780 <__mdiff+0x124>
    67a0:	e3a01000 	mov	r1, #0	; 0x0
    67a4:	ebffff44 	bl	64bc <_Balloc>
    67a8:	e3a03001 	mov	r3, #1	; 0x1
    67ac:	e1a09000 	mov	r9, r0
    67b0:	e3a02000 	mov	r2, #0	; 0x0
    67b4:	e5803010 	str	r3, [r0, #16]
    67b8:	e5802014 	str	r2, [r0, #20]
    67bc:	e1a00009 	mov	r0, r9
    67c0:	e8bd87f0 	pop	{r4, r5, r6, r7, r8, r9, sl, pc}
    67c4:	2affffaf 	bcs	6688 <__mdiff+0x2c>
    67c8:	e1a03005 	mov	r3, r5
    67cc:	e3a08001 	mov	r8, #1	; 0x1
    67d0:	e1a05004 	mov	r5, r4
    67d4:	e2837014 	add	r7, r3, #20	; 0x14
    67d8:	e1a04003 	mov	r4, r3
    67dc:	eaffffa9 	b	6688 <__mdiff+0x2c>

000067e0 <__lshift>:
    67e0:	e5913010 	ldr	r3, [r1, #16]
    67e4:	e92d45f0 	push	{r4, r5, r6, r7, r8, sl, lr}
    67e8:	e2833001 	add	r3, r3, #1	; 0x1
    67ec:	e1a042c2 	asr	r4, r2, #5
    67f0:	e1a07002 	mov	r7, r2
    67f4:	e5912008 	ldr	r2, [r1, #8]
    67f8:	e0835004 	add	r5, r3, r4
    67fc:	e1550002 	cmp	r5, r2
    6800:	e1a06001 	mov	r6, r1
    6804:	e1a0a000 	mov	sl, r0
    6808:	e5911004 	ldr	r1, [r1, #4]
    680c:	da000003 	ble	6820 <__lshift+0x40>
    6810:	e1a02082 	lsl	r2, r2, #1
    6814:	e1550002 	cmp	r5, r2
    6818:	e2811001 	add	r1, r1, #1	; 0x1
    681c:	cafffffb 	bgt	6810 <__lshift+0x30>
    6820:	e1a0000a 	mov	r0, sl
    6824:	ebffff24 	bl	64bc <_Balloc>
    6828:	e3540000 	cmp	r4, #0	; 0x0
    682c:	e1a08000 	mov	r8, r0
    6830:	e2800014 	add	r0, r0, #20	; 0x14
    6834:	da000008 	ble	685c <__lshift+0x7c>
    6838:	e3a03000 	mov	r3, #0	; 0x0
    683c:	e1a02003 	mov	r2, r3
    6840:	e7802103 	str	r2, [r0, r3, lsl #2]
    6844:	e2833001 	add	r3, r3, #1	; 0x1
    6848:	e1540003 	cmp	r4, r3
    684c:	cafffffb 	bgt	6840 <__lshift+0x60>
    6850:	e2843005 	add	r3, r4, #5	; 0x5
    6854:	e1a03103 	lsl	r3, r3, #2
    6858:	e0880003 	add	r0, r8, r3
    685c:	e5963010 	ldr	r3, [r6, #16]
    6860:	e2833005 	add	r3, r3, #5	; 0x5
    6864:	e1a03103 	lsl	r3, r3, #2
    6868:	e217c01f 	ands	ip, r7, #31	; 0x1f
    686c:	e0864003 	add	r4, r6, r3
    6870:	e2861014 	add	r1, r6, #20	; 0x14
    6874:	01a0200c 	moveq	r2, ip
    6878:	0a000014 	beq	68d0 <__lshift+0xf0>
    687c:	e26ce020 	rsb	lr, ip, #32	; 0x20
    6880:	e3a02000 	mov	r2, #0	; 0x0
    6884:	e5913000 	ldr	r3, [r1]
    6888:	e1823c13 	orr	r3, r2, r3, lsl ip
    688c:	e4803004 	str	r3, [r0], #4
    6890:	e4912004 	ldr	r2, [r1], #4
    6894:	e1540001 	cmp	r4, r1
    6898:	e1a02e32 	lsr	r2, r2, lr
    689c:	8afffff8 	bhi	6884 <__lshift+0xa4>
    68a0:	e3520000 	cmp	r2, #0	; 0x0
    68a4:	e5802000 	str	r2, [r0]
    68a8:	12855001 	addne	r5, r5, #1	; 0x1
    68ac:	e59a004c 	ldr	r0, [sl, #76]
    68b0:	e5962004 	ldr	r2, [r6, #4]
    68b4:	e7903102 	ldr	r3, [r0, r2, lsl #2]
    68b8:	e2451001 	sub	r1, r5, #1	; 0x1
    68bc:	e5863000 	str	r3, [r6]
    68c0:	e5881010 	str	r1, [r8, #16]
    68c4:	e7806102 	str	r6, [r0, r2, lsl #2]
    68c8:	e1a00008 	mov	r0, r8
    68cc:	e8bd85f0 	pop	{r4, r5, r6, r7, r8, sl, pc}
    68d0:	e7913002 	ldr	r3, [r1, r2]
    68d4:	e7803002 	str	r3, [r0, r2]
    68d8:	e2822004 	add	r2, r2, #4	; 0x4
    68dc:	e0813002 	add	r3, r1, r2
    68e0:	e1540003 	cmp	r4, r3
    68e4:	9afffff0 	bls	68ac <__lshift+0xcc>
    68e8:	e7913002 	ldr	r3, [r1, r2]
    68ec:	e7803002 	str	r3, [r0, r2]
    68f0:	e2822004 	add	r2, r2, #4	; 0x4
    68f4:	e0813002 	add	r3, r1, r2
    68f8:	e1540003 	cmp	r4, r3
    68fc:	8afffff3 	bhi	68d0 <__lshift+0xf0>
    6900:	eaffffe9 	b	68ac <__lshift+0xcc>

00006904 <__multiply>:
    6904:	e92d4ff0 	push	{r4, r5, r6, r7, r8, r9, sl, fp, lr}
    6908:	e5915010 	ldr	r5, [r1, #16]
    690c:	e5926010 	ldr	r6, [r2, #16]
    6910:	e1550006 	cmp	r5, r6
    6914:	b1a03002 	movlt	r3, r2
    6918:	a1a03005 	movge	r3, r5
    691c:	e1a04001 	mov	r4, r1
    6920:	b1a04003 	movlt	r4, r3
    6924:	a1a05006 	movge	r5, r6
    6928:	a1a06003 	movge	r6, r3
    692c:	e5943008 	ldr	r3, [r4, #8]
    6930:	e1a07002 	mov	r7, r2
    6934:	e085a006 	add	sl, r5, r6
    6938:	b1a07001 	movlt	r7, r1
    693c:	e5941004 	ldr	r1, [r4, #4]
    6940:	e15a0003 	cmp	sl, r3
    6944:	e24dd014 	sub	sp, sp, #20	; 0x14
    6948:	c2811001 	addgt	r1, r1, #1	; 0x1
    694c:	ebfffeda 	bl	64bc <_Balloc>
    6950:	e28a3005 	add	r3, sl, #5	; 0x5
    6954:	e1a03103 	lsl	r3, r3, #2
    6958:	e0803003 	add	r3, r0, r3
    695c:	e2801014 	add	r1, r0, #20	; 0x14
    6960:	e1510003 	cmp	r1, r3
    6964:	e88d0009 	stm	sp, {r0, r3}
    6968:	e58d100c 	str	r1, [sp, #12]
    696c:	2a000005 	bcs	6988 <__multiply+0x84>
    6970:	e1a03001 	mov	r3, r1
    6974:	e3a02000 	mov	r2, #0	; 0x0
    6978:	e4832004 	str	r2, [r3], #4
    697c:	e59d1004 	ldr	r1, [sp, #4]
    6980:	e1510003 	cmp	r1, r3
    6984:	8afffffb 	bhi	6978 <__multiply+0x74>
    6988:	e2853005 	add	r3, r5, #5	; 0x5
    698c:	e1a03103 	lsl	r3, r3, #2
    6990:	e2862005 	add	r2, r6, #5	; 0x5
    6994:	e0873003 	add	r3, r7, r3
    6998:	e2879014 	add	r9, r7, #20	; 0x14
    699c:	e1a02102 	lsl	r2, r2, #2
    69a0:	e0848002 	add	r8, r4, r2
    69a4:	e1590003 	cmp	r9, r3
    69a8:	e2844014 	add	r4, r4, #20	; 0x14
    69ac:	e58d3008 	str	r3, [sp, #8]
    69b0:	e58d4010 	str	r4, [sp, #16]
    69b4:	2a00003b 	bcs	6aa8 <__multiply+0x1a4>
    69b8:	e3a07000 	mov	r7, #0	; 0x0
    69bc:	e7993007 	ldr	r3, [r9, r7]
    69c0:	e1a06803 	lsl	r6, r3, #16
    69c4:	e1a06826 	lsr	r6, r6, #16
    69c8:	e59d200c 	ldr	r2, [sp, #12]
    69cc:	e3560000 	cmp	r6, #0	; 0x0
    69d0:	e082b007 	add	fp, r2, r7
    69d4:	0a000015 	beq	6a30 <__multiply+0x12c>
    69d8:	e59d5010 	ldr	r5, [sp, #16]
    69dc:	e1a0e00b 	mov	lr, fp
    69e0:	e3a04000 	mov	r4, #0	; 0x0
    69e4:	e495c004 	ldr	ip, [r5], #4
    69e8:	e59e1000 	ldr	r1, [lr]
    69ec:	e1a0280c 	lsl	r2, ip, #16
    69f0:	e1a03801 	lsl	r3, r1, #16
    69f4:	e1a03823 	lsr	r3, r3, #16
    69f8:	e1a02822 	lsr	r2, r2, #16
    69fc:	e0203296 	mla	r0, r6, r2, r3
    6a00:	e1a0c82c 	lsr	ip, ip, #16
    6a04:	e1a01821 	lsr	r1, r1, #16
    6a08:	e0231c96 	mla	r3, r6, ip, r1
    6a0c:	e0800004 	add	r0, r0, r4
    6a10:	e0833820 	add	r3, r3, r0, lsr #16
    6a14:	e1580005 	cmp	r8, r5
    6a18:	e1ce30b2 	strh	r3, [lr, #2]
    6a1c:	e1a04823 	lsr	r4, r3, #16
    6a20:	e0ce00b4 	strh	r0, [lr], #4
    6a24:	8affffee 	bhi	69e4 <__multiply+0xe0>
    6a28:	e58e4000 	str	r4, [lr]
    6a2c:	e7993007 	ldr	r3, [r9, r7]
    6a30:	e1b06823 	lsrs	r6, r3, #16
    6a34:	0a000016 	beq	6a94 <__multiply+0x190>
    6a38:	e59d300c 	ldr	r3, [sp, #12]
    6a3c:	e7932007 	ldr	r2, [r3, r7]
    6a40:	e59d4010 	ldr	r4, [sp, #16]
    6a44:	e1a0e00b 	mov	lr, fp
    6a48:	e1a0c002 	mov	ip, r2
    6a4c:	e3a05000 	mov	r5, #0	; 0x0
    6a50:	e4940004 	ldr	r0, [r4], #4
    6a54:	e1a03800 	lsl	r3, r0, #16
    6a58:	e1a03823 	lsr	r3, r3, #16
    6a5c:	e0215693 	mla	r1, r3, r6, r5
    6a60:	e081182c 	add	r1, r1, ip, lsr #16
    6a64:	e1ce20b0 	strh	r2, [lr]
    6a68:	e1ce10b2 	strh	r1, [lr, #2]
    6a6c:	e5bec004 	ldr	ip, [lr, #4]!
    6a70:	e1a0380c 	lsl	r3, ip, #16
    6a74:	e1a00820 	lsr	r0, r0, #16
    6a78:	e1a03823 	lsr	r3, r3, #16
    6a7c:	e0223690 	mla	r2, r0, r6, r3
    6a80:	e1580004 	cmp	r8, r4
    6a84:	e0822821 	add	r2, r2, r1, lsr #16
    6a88:	e1a05822 	lsr	r5, r2, #16
    6a8c:	8affffef 	bhi	6a50 <__multiply+0x14c>
    6a90:	e58e2000 	str	r2, [lr]
    6a94:	e2877004 	add	r7, r7, #4	; 0x4
    6a98:	e59d1008 	ldr	r1, [sp, #8]
    6a9c:	e0893007 	add	r3, r9, r7
    6aa0:	e1510003 	cmp	r1, r3
    6aa4:	8affffc4 	bhi	69bc <__multiply+0xb8>
    6aa8:	e35a0000 	cmp	sl, #0	; 0x0
    6aac:	da00000a 	ble	6adc <__multiply+0x1d8>
    6ab0:	e59d2004 	ldr	r2, [sp, #4]
    6ab4:	e5123004 	ldr	r3, [r2, #-4]
    6ab8:	e3530000 	cmp	r3, #0	; 0x0
    6abc:	0a000004 	beq	6ad4 <__multiply+0x1d0>
    6ac0:	ea000005 	b	6adc <__multiply+0x1d8>
    6ac4:	e5123008 	ldr	r3, [r2, #-8]
    6ac8:	e3530000 	cmp	r3, #0	; 0x0
    6acc:	e2422004 	sub	r2, r2, #4	; 0x4
    6ad0:	1a000001 	bne	6adc <__multiply+0x1d8>
    6ad4:	e25aa001 	subs	sl, sl, #1	; 0x1
    6ad8:	1afffff9 	bne	6ac4 <__multiply+0x1c0>
    6adc:	e59d3000 	ldr	r3, [sp]
    6ae0:	e583a010 	str	sl, [r3, #16]
    6ae4:	e1a00003 	mov	r0, r3
    6ae8:	e28dd014 	add	sp, sp, #20	; 0x14
    6aec:	e8bd8ff0 	pop	{r4, r5, r6, r7, r8, r9, sl, fp, pc}

00006af0 <__i2b>:
    6af0:	e92d4010 	push	{r4, lr}
    6af4:	e1a04001 	mov	r4, r1
    6af8:	e3a01001 	mov	r1, #1	; 0x1
    6afc:	ebfffe6e 	bl	64bc <_Balloc>
    6b00:	e3a03001 	mov	r3, #1	; 0x1
    6b04:	e5803010 	str	r3, [r0, #16]
    6b08:	e5804014 	str	r4, [r0, #20]
    6b0c:	e8bd8010 	pop	{r4, pc}

00006b10 <__multadd>:
    6b10:	e92d47f0 	push	{r4, r5, r6, r7, r8, r9, sl, lr}
    6b14:	e3a04000 	mov	r4, #0	; 0x0
    6b18:	e5918010 	ldr	r8, [r1, #16]
    6b1c:	e1a0a001 	mov	sl, r1
    6b20:	e1a09000 	mov	r9, r0
    6b24:	e1a07002 	mov	r7, r2
    6b28:	e1a05003 	mov	r5, r3
    6b2c:	e2816014 	add	r6, r1, #20	; 0x14
    6b30:	e1a0c004 	mov	ip, r4
    6b34:	e796200c 	ldr	r2, [r6, ip]
    6b38:	e1a03802 	lsl	r3, r2, #16
    6b3c:	e1a03823 	lsr	r3, r3, #16
    6b40:	e1a02822 	lsr	r2, r2, #16
    6b44:	e0215793 	mla	r1, r3, r7, r5
    6b48:	e0000792 	mul	r0, r2, r7
    6b4c:	e1a03801 	lsl	r3, r1, #16
    6b50:	e0800821 	add	r0, r0, r1, lsr #16
    6b54:	e1a02800 	lsl	r2, r0, #16
    6b58:	e1a03823 	lsr	r3, r3, #16
    6b5c:	e2844001 	add	r4, r4, #1	; 0x1
    6b60:	e0822003 	add	r2, r2, r3
    6b64:	e1580004 	cmp	r8, r4
    6b68:	e786200c 	str	r2, [r6, ip]
    6b6c:	e1a05820 	lsr	r5, r0, #16
    6b70:	e28cc004 	add	ip, ip, #4	; 0x4
    6b74:	caffffee 	bgt	6b34 <__multadd+0x24>
    6b78:	e3550000 	cmp	r5, #0	; 0x0
    6b7c:	0a000006 	beq	6b9c <__multadd+0x8c>
    6b80:	e59a3008 	ldr	r3, [sl, #8]
    6b84:	e1580003 	cmp	r8, r3
    6b88:	aa000005 	bge	6ba4 <__multadd+0x94>
    6b8c:	e2882001 	add	r2, r8, #1	; 0x1
    6b90:	e2883005 	add	r3, r8, #5	; 0x5
    6b94:	e78a5103 	str	r5, [sl, r3, lsl #2]
    6b98:	e58a2010 	str	r2, [sl, #16]
    6b9c:	e1a0000a 	mov	r0, sl
    6ba0:	e8bd87f0 	pop	{r4, r5, r6, r7, r8, r9, sl, pc}
    6ba4:	e59a1004 	ldr	r1, [sl, #4]
    6ba8:	e1a00009 	mov	r0, r9
    6bac:	e2811001 	add	r1, r1, #1	; 0x1
    6bb0:	ebfffe41 	bl	64bc <_Balloc>
    6bb4:	e59a2010 	ldr	r2, [sl, #16]
    6bb8:	e2822002 	add	r2, r2, #2	; 0x2
    6bbc:	e28a100c 	add	r1, sl, #12	; 0xc
    6bc0:	e1a04000 	mov	r4, r0
    6bc4:	e1a02102 	lsl	r2, r2, #2
    6bc8:	e280000c 	add	r0, r0, #12	; 0xc
    6bcc:	ebffe8b0 	bl	e94 <memcpy>
    6bd0:	e59a2004 	ldr	r2, [sl, #4]
    6bd4:	e599104c 	ldr	r1, [r9, #76]
    6bd8:	e7913102 	ldr	r3, [r1, r2, lsl #2]
    6bdc:	e58a3000 	str	r3, [sl]
    6be0:	e781a102 	str	sl, [r1, r2, lsl #2]
    6be4:	e1a0a004 	mov	sl, r4
    6be8:	eaffffe7 	b	6b8c <__multadd+0x7c>

00006bec <__pow5mult>:
    6bec:	e212c003 	ands	ip, r2, #3	; 0x3
    6bf0:	e92d41f0 	push	{r4, r5, r6, r7, r8, lr}
    6bf4:	e1a04002 	mov	r4, r2
    6bf8:	e1a08000 	mov	r8, r0
    6bfc:	e1a07001 	mov	r7, r1
    6c00:	1a000026 	bne	6ca0 <__pow5mult+0xb4>
    6c04:	e1b06144 	asrs	r6, r4, #2
    6c08:	0a00001a 	beq	6c78 <__pow5mult+0x8c>
    6c0c:	e5985048 	ldr	r5, [r8, #72]
    6c10:	e3550000 	cmp	r5, #0	; 0x0
    6c14:	0a000028 	beq	6cbc <__pow5mult+0xd0>
    6c18:	e3160001 	tst	r6, #1	; 0x1
    6c1c:	1a000008 	bne	6c44 <__pow5mult+0x58>
    6c20:	e1b060c6 	asrs	r6, r6, #1
    6c24:	0a000013 	beq	6c78 <__pow5mult+0x8c>
    6c28:	e5954000 	ldr	r4, [r5]
    6c2c:	e3540000 	cmp	r4, #0	; 0x0
    6c30:	11a00004 	movne	r0, r4
    6c34:	0a000011 	beq	6c80 <__pow5mult+0x94>
    6c38:	e1a05000 	mov	r5, r0
    6c3c:	e3160001 	tst	r6, #1	; 0x1
    6c40:	0afffff6 	beq	6c20 <__pow5mult+0x34>
    6c44:	e1a01007 	mov	r1, r7
    6c48:	e1a02005 	mov	r2, r5
    6c4c:	e1a00008 	mov	r0, r8
    6c50:	ebffff2b 	bl	6904 <__multiply>
    6c54:	e3570000 	cmp	r7, #0	; 0x0
    6c58:	15971004 	ldrne	r1, [r7, #4]
    6c5c:	1598204c 	ldrne	r2, [r8, #76]
    6c60:	17923101 	ldrne	r3, [r2, r1, lsl #2]
    6c64:	15873000 	strne	r3, [r7]
    6c68:	17827101 	strne	r7, [r2, r1, lsl #2]
    6c6c:	e1b060c6 	asrs	r6, r6, #1
    6c70:	e1a07000 	mov	r7, r0
    6c74:	1affffeb 	bne	6c28 <__pow5mult+0x3c>
    6c78:	e1a00007 	mov	r0, r7
    6c7c:	e8bd81f0 	pop	{r4, r5, r6, r7, r8, pc}
    6c80:	e1a01005 	mov	r1, r5
    6c84:	e1a02005 	mov	r2, r5
    6c88:	e1a00008 	mov	r0, r8
    6c8c:	ebffff1c 	bl	6904 <__multiply>
    6c90:	e5850000 	str	r0, [r5]
    6c94:	e5804000 	str	r4, [r0]
    6c98:	e1a05000 	mov	r5, r0
    6c9c:	eaffffe6 	b	6c3c <__pow5mult+0x50>
    6ca0:	e59f3038 	ldr	r3, [pc, #56]	; 6ce0 <__pow5mult+0xf4>
    6ca4:	e24cc001 	sub	ip, ip, #1	; 0x1
    6ca8:	e793210c 	ldr	r2, [r3, ip, lsl #2]
    6cac:	e3a03000 	mov	r3, #0	; 0x0
    6cb0:	ebffff96 	bl	6b10 <__multadd>
    6cb4:	e1a07000 	mov	r7, r0
    6cb8:	eaffffd1 	b	6c04 <__pow5mult+0x18>
    6cbc:	e3a01e27 	mov	r1, #624	; 0x270
    6cc0:	e2811001 	add	r1, r1, #1	; 0x1
    6cc4:	e1a00008 	mov	r0, r8
    6cc8:	ebffff88 	bl	6af0 <__i2b>
    6ccc:	e3a03000 	mov	r3, #0	; 0x0
    6cd0:	e5880048 	str	r0, [r8, #72]
    6cd4:	e1a05000 	mov	r5, r0
    6cd8:	e5803000 	str	r3, [r0]
    6cdc:	eaffffcd 	b	6c18 <__pow5mult+0x2c>
    6ce0:	00008fc0 	.word	0x00008fc0

00006ce4 <__s2b>:
    6ce4:	e59fc0d8 	ldr	ip, [pc, #216]	; 6dc4 <__s2b+0xe0>
    6ce8:	e92d45f0 	push	{r4, r5, r6, r7, r8, sl, lr}
    6cec:	e1a08003 	mov	r8, r3
    6cf0:	e2833008 	add	r3, r3, #8	; 0x8
    6cf4:	e0ce439c 	smull	r4, lr, ip, r3
    6cf8:	e1a03fc3 	asr	r3, r3, #31
    6cfc:	e063c0ce 	rsb	ip, r3, lr, asr #1
    6d00:	e35c0001 	cmp	ip, #1	; 0x1
    6d04:	e1a06001 	mov	r6, r1
    6d08:	e1a07000 	mov	r7, r0
    6d0c:	e1a05002 	mov	r5, r2
    6d10:	d3a01000 	movle	r1, #0	; 0x0
    6d14:	da000005 	ble	6d30 <__s2b+0x4c>
    6d18:	e3a01000 	mov	r1, #0	; 0x0
    6d1c:	e3a03001 	mov	r3, #1	; 0x1
    6d20:	e1a03083 	lsl	r3, r3, #1
    6d24:	e15c0003 	cmp	ip, r3
    6d28:	e2811001 	add	r1, r1, #1	; 0x1
    6d2c:	cafffffb 	bgt	6d20 <__s2b+0x3c>
    6d30:	e1a00007 	mov	r0, r7
    6d34:	ebfffde0 	bl	64bc <_Balloc>
    6d38:	e59d301c 	ldr	r3, [sp, #28]
    6d3c:	e3550009 	cmp	r5, #9	; 0x9
    6d40:	e3a02001 	mov	r2, #1	; 0x1
    6d44:	e5803014 	str	r3, [r0, #20]
    6d48:	e5802010 	str	r2, [r0, #16]
    6d4c:	d286600a 	addle	r6, r6, #10	; 0xa
    6d50:	d3a05009 	movle	r5, #9	; 0x9
    6d54:	da00000c 	ble	6d8c <__s2b+0xa8>
    6d58:	e286a009 	add	sl, r6, #9	; 0x9
    6d5c:	e3a04009 	mov	r4, #9	; 0x9
    6d60:	e7d63004 	ldrb	r3, [r6, r4]
    6d64:	e1a01000 	mov	r1, r0
    6d68:	e2433030 	sub	r3, r3, #48	; 0x30
    6d6c:	e2844001 	add	r4, r4, #1	; 0x1
    6d70:	e1a00007 	mov	r0, r7
    6d74:	e3a0200a 	mov	r2, #10	; 0xa
    6d78:	ebffff64 	bl	6b10 <__multadd>
    6d7c:	e1550004 	cmp	r5, r4
    6d80:	cafffff6 	bgt	6d60 <__s2b+0x7c>
    6d84:	e08a3005 	add	r3, sl, r5
    6d88:	e2436008 	sub	r6, r3, #8	; 0x8
    6d8c:	e1580005 	cmp	r8, r5
    6d90:	d8bd85f0 	pople	{r4, r5, r6, r7, r8, sl, pc}
    6d94:	e3a04000 	mov	r4, #0	; 0x0
    6d98:	e7d63004 	ldrb	r3, [r6, r4]
    6d9c:	e1a01000 	mov	r1, r0
    6da0:	e2433030 	sub	r3, r3, #48	; 0x30
    6da4:	e2844001 	add	r4, r4, #1	; 0x1
    6da8:	e1a00007 	mov	r0, r7
    6dac:	e3a0200a 	mov	r2, #10	; 0xa
    6db0:	ebffff56 	bl	6b10 <__multadd>
    6db4:	e0843005 	add	r3, r4, r5
    6db8:	e1580003 	cmp	r8, r3
    6dbc:	cafffff5 	bgt	6d98 <__s2b+0xb4>
    6dc0:	e8bd85f0 	pop	{r4, r5, r6, r7, r8, sl, pc}
    6dc4:	38e38e39 	.word	0x38e38e39

00006dc8 <_realloc_r>:
    6dc8:	e92d4ff0 	push	{r4, r5, r6, r7, r8, r9, sl, fp, lr}
    6dcc:	e251b000 	subs	fp, r1, #0	; 0x0
    6dd0:	e24dd008 	sub	sp, sp, #8	; 0x8
    6dd4:	e1a06002 	mov	r6, r2
    6dd8:	e58d0004 	str	r0, [sp, #4]
    6ddc:	0a0000cd 	beq	7118 <_realloc_r+0x350>
    6de0:	ebfffc94 	bl	6038 <__malloc_lock>
    6de4:	e286200b 	add	r2, r6, #11	; 0xb
    6de8:	e3520016 	cmp	r2, #22	; 0x16
    6dec:	83c2a007 	bichi	sl, r2, #7	; 0x7
    6df0:	93a0a010 	movls	sl, #16	; 0x10
    6df4:	93a03000 	movls	r3, #0	; 0x0
    6df8:	81a03faa 	lsrhi	r3, sl, #31
    6dfc:	e24b4008 	sub	r4, fp, #8	; 0x8
    6e00:	91a0700a 	movls	r7, sl
    6e04:	81a0700a 	movhi	r7, sl
    6e08:	e594c004 	ldr	ip, [r4, #4]
    6e0c:	e15a0006 	cmp	sl, r6
    6e10:	21a0e003 	movcs	lr, r3
    6e14:	3383e001 	orrcc	lr, r3, #1	; 0x1
    6e18:	e35e0000 	cmp	lr, #0	; 0x0
    6e1c:	e1a0100c 	mov	r1, ip
    6e20:	1a0000e1 	bne	71ac <_realloc_r+0x3e4>
    6e24:	e3cc5003 	bic	r5, ip, #3	; 0x3
    6e28:	e1550007 	cmp	r5, r7
    6e2c:	a1a09005 	movge	r9, r5
    6e30:	aa00004d 	bge	6f6c <_realloc_r+0x1a4>
    6e34:	e59f3498 	ldr	r3, [pc, #1176]	; 72d4 <_realloc_r+0x50c>
    6e38:	e5938008 	ldr	r8, [r3, #8]
    6e3c:	e0840005 	add	r0, r4, r5
    6e40:	e1580000 	cmp	r8, r0
    6e44:	0a0000b7 	beq	7128 <_realloc_r+0x360>
    6e48:	e5901004 	ldr	r1, [r0, #4]
    6e4c:	e3c13001 	bic	r3, r1, #1	; 0x1
    6e50:	e0803003 	add	r3, r0, r3
    6e54:	e5932004 	ldr	r2, [r3, #4]
    6e58:	e3120001 	tst	r2, #1	; 0x1
    6e5c:	0a000060 	beq	6fe4 <_realloc_r+0x21c>
    6e60:	e1a0000e 	mov	r0, lr
    6e64:	e1a0100e 	mov	r1, lr
    6e68:	e31c0001 	tst	ip, #1	; 0x1
    6e6c:	1a00006c 	bne	7024 <_realloc_r+0x25c>
    6e70:	e51b3008 	ldr	r3, [fp, #-8]
    6e74:	e063c004 	rsb	ip, r3, r4
    6e78:	e59c2004 	ldr	r2, [ip, #4]
    6e7c:	e3500000 	cmp	r0, #0	; 0x0
    6e80:	e3c22003 	bic	r2, r2, #3	; 0x3
    6e84:	0a000063 	beq	7018 <_realloc_r+0x250>
    6e88:	e1500008 	cmp	r0, r8
    6e8c:	0a0000cb 	beq	71c0 <_realloc_r+0x3f8>
    6e90:	e0822005 	add	r2, r2, r5
    6e94:	e0819002 	add	r9, r1, r2
    6e98:	e1590007 	cmp	r9, r7
    6e9c:	b1a09002 	movlt	r9, r2
    6ea0:	ba00005d 	blt	701c <_realloc_r+0x254>
    6ea4:	e2802008 	add	r2, r0, #8	; 0x8
    6ea8:	e892000c 	ldm	r2, {r2, r3}
    6eac:	e5832008 	str	r2, [r3, #8]
    6eb0:	e582300c 	str	r3, [r2, #12]
    6eb4:	e1a0000c 	mov	r0, ip
    6eb8:	e59c200c 	ldr	r2, [ip, #12]
    6ebc:	e5b03008 	ldr	r3, [r0, #8]!
    6ec0:	e2455004 	sub	r5, r5, #4	; 0x4
    6ec4:	e3550024 	cmp	r5, #36	; 0x24
    6ec8:	e5823008 	str	r3, [r2, #8]
    6ecc:	e583200c 	str	r2, [r3, #12]
    6ed0:	8a0000ad 	bhi	718c <_realloc_r+0x3c4>
    6ed4:	e3550013 	cmp	r5, #19	; 0x13
    6ed8:	e1a04000 	mov	r4, r0
    6edc:	e1a0e00b 	mov	lr, fp
    6ee0:	9a000017 	bls	6f44 <_realloc_r+0x17c>
    6ee4:	e59b3000 	ldr	r3, [fp]
    6ee8:	e58c3008 	str	r3, [ip, #8]
    6eec:	e59b2004 	ldr	r2, [fp, #4]
    6ef0:	e28b3004 	add	r3, fp, #4	; 0x4
    6ef4:	e355001b 	cmp	r5, #27	; 0x1b
    6ef8:	e58c200c 	str	r2, [ip, #12]
    6efc:	e28c4010 	add	r4, ip, #16	; 0x10
    6f00:	e283e004 	add	lr, r3, #4	; 0x4
    6f04:	9a00000e 	bls	6f44 <_realloc_r+0x17c>
    6f08:	e5933004 	ldr	r3, [r3, #4]
    6f0c:	e58c3010 	str	r3, [ip, #16]
    6f10:	e59e2004 	ldr	r2, [lr, #4]
    6f14:	e28e3004 	add	r3, lr, #4	; 0x4
    6f18:	e3550024 	cmp	r5, #36	; 0x24
    6f1c:	e58c2014 	str	r2, [ip, #20]
    6f20:	e28c4018 	add	r4, ip, #24	; 0x18
    6f24:	e283e004 	add	lr, r3, #4	; 0x4
    6f28:	1a000005 	bne	6f44 <_realloc_r+0x17c>
    6f2c:	e5933004 	ldr	r3, [r3, #4]
    6f30:	e58c3018 	str	r3, [ip, #24]
    6f34:	e59e2004 	ldr	r2, [lr, #4]
    6f38:	e58c201c 	str	r2, [ip, #28]
    6f3c:	e28ee008 	add	lr, lr, #8	; 0x8
    6f40:	e28c4020 	add	r4, ip, #32	; 0x20
    6f44:	e1a0000e 	mov	r0, lr
    6f48:	e4902004 	ldr	r2, [r0], #4
    6f4c:	e1a01004 	mov	r1, r4
    6f50:	e4812004 	str	r2, [r1], #4
    6f54:	e59e3004 	ldr	r3, [lr, #4]
    6f58:	e5843004 	str	r3, [r4, #4]
    6f5c:	e5902004 	ldr	r2, [r0, #4]
    6f60:	e5812004 	str	r2, [r1, #4]
    6f64:	e59c1004 	ldr	r1, [ip, #4]
    6f68:	e1a0400c 	mov	r4, ip
    6f6c:	e06a0009 	rsb	r0, sl, r9
    6f70:	e350000f 	cmp	r0, #15	; 0xf
    6f74:	8a00000c 	bhi	6fac <_realloc_r+0x1e4>
    6f78:	e2013001 	and	r3, r1, #1	; 0x1
    6f7c:	e1833009 	orr	r3, r3, r9
    6f80:	e5843004 	str	r3, [r4, #4]
    6f84:	e0842009 	add	r2, r4, r9
    6f88:	e5923004 	ldr	r3, [r2, #4]
    6f8c:	e3833001 	orr	r3, r3, #1	; 0x1
    6f90:	e5823004 	str	r3, [r2, #4]
    6f94:	e59d0004 	ldr	r0, [sp, #4]
    6f98:	ebfffc27 	bl	603c <__malloc_unlock>
    6f9c:	e2846008 	add	r6, r4, #8	; 0x8
    6fa0:	e1a00006 	mov	r0, r6
    6fa4:	e28dd008 	add	sp, sp, #8	; 0x8
    6fa8:	e8bd8ff0 	pop	{r4, r5, r6, r7, r8, r9, sl, fp, pc}
    6fac:	e2013001 	and	r3, r1, #1	; 0x1
    6fb0:	e183300a 	orr	r3, r3, sl
    6fb4:	e084100a 	add	r1, r4, sl
    6fb8:	e3802001 	orr	r2, r0, #1	; 0x1
    6fbc:	e5843004 	str	r3, [r4, #4]
    6fc0:	e5812004 	str	r2, [r1, #4]
    6fc4:	e0810000 	add	r0, r1, r0
    6fc8:	e5903004 	ldr	r3, [r0, #4]
    6fcc:	e3833001 	orr	r3, r3, #1	; 0x1
    6fd0:	e5803004 	str	r3, [r0, #4]
    6fd4:	e2811008 	add	r1, r1, #8	; 0x8
    6fd8:	e59d0004 	ldr	r0, [sp, #4]
    6fdc:	ebfff6ff 	bl	4be0 <_free_r>
    6fe0:	eaffffeb 	b	6f94 <_realloc_r+0x1cc>
    6fe4:	e3c11003 	bic	r1, r1, #3	; 0x3
    6fe8:	e0819005 	add	r9, r1, r5
    6fec:	e1590007 	cmp	r9, r7
    6ff0:	baffff9c 	blt	6e68 <_realloc_r+0xa0>
    6ff4:	e2802008 	add	r2, r0, #8	; 0x8
    6ff8:	e892000c 	ldm	r2, {r2, r3}
    6ffc:	e06a0009 	rsb	r0, sl, r9
    7000:	e350000f 	cmp	r0, #15	; 0xf
    7004:	e5832008 	str	r2, [r3, #8]
    7008:	e582300c 	str	r3, [r2, #12]
    700c:	e1a0100c 	mov	r1, ip
    7010:	9affffd8 	bls	6f78 <_realloc_r+0x1b0>
    7014:	eaffffe4 	b	6fac <_realloc_r+0x1e4>
    7018:	e0829005 	add	r9, r2, r5
    701c:	e1590007 	cmp	r9, r7
    7020:	aaffffa3 	bge	6eb4 <_realloc_r+0xec>
    7024:	e1a01006 	mov	r1, r6
    7028:	e59d0004 	ldr	r0, [sp, #4]
    702c:	ebfff969 	bl	55d8 <_malloc_r>
    7030:	e2506000 	subs	r6, r0, #0	; 0x0
    7034:	0a000034 	beq	710c <_realloc_r+0x344>
    7038:	e5941004 	ldr	r1, [r4, #4]
    703c:	e3c13001 	bic	r3, r1, #1	; 0x1
    7040:	e0843003 	add	r3, r4, r3
    7044:	e2462008 	sub	r2, r6, #8	; 0x8
    7048:	e1520003 	cmp	r2, r3
    704c:	05923004 	ldreq	r3, [r2, #4]
    7050:	03c33003 	biceq	r3, r3, #3	; 0x3
    7054:	00839005 	addeq	r9, r3, r5
    7058:	0affffc3 	beq	6f6c <_realloc_r+0x1a4>
    705c:	e2451004 	sub	r1, r5, #4	; 0x4
    7060:	e3510024 	cmp	r1, #36	; 0x24
    7064:	8a000044 	bhi	717c <_realloc_r+0x3b4>
    7068:	e3510013 	cmp	r1, #19	; 0x13
    706c:	e1a0c00b 	mov	ip, fp
    7070:	e1a0e006 	mov	lr, r6
    7074:	9a000019 	bls	70e0 <_realloc_r+0x318>
    7078:	e1a0400b 	mov	r4, fp
    707c:	e4943004 	ldr	r3, [r4], #4
    7080:	e1a00006 	mov	r0, r6
    7084:	e4803004 	str	r3, [r0], #4
    7088:	e59b2004 	ldr	r2, [fp, #4]
    708c:	e351001b 	cmp	r1, #27	; 0x1b
    7090:	e5862004 	str	r2, [r6, #4]
    7094:	e280e004 	add	lr, r0, #4	; 0x4
    7098:	e284c004 	add	ip, r4, #4	; 0x4
    709c:	9a00000f 	bls	70e0 <_realloc_r+0x318>
    70a0:	e5943004 	ldr	r3, [r4, #4]
    70a4:	e5803004 	str	r3, [r0, #4]
    70a8:	e59c2004 	ldr	r2, [ip, #4]
    70ac:	e3510024 	cmp	r1, #36	; 0x24
    70b0:	e28c3004 	add	r3, ip, #4	; 0x4
    70b4:	e28e1004 	add	r1, lr, #4	; 0x4
    70b8:	e58e2004 	str	r2, [lr, #4]
    70bc:	e283c004 	add	ip, r3, #4	; 0x4
    70c0:	e281e004 	add	lr, r1, #4	; 0x4
    70c4:	1a000005 	bne	70e0 <_realloc_r+0x318>
    70c8:	e5933004 	ldr	r3, [r3, #4]
    70cc:	e5813004 	str	r3, [r1, #4]
    70d0:	e59c2004 	ldr	r2, [ip, #4]
    70d4:	e28cc008 	add	ip, ip, #8	; 0x8
    70d8:	e58e2004 	str	r2, [lr, #4]
    70dc:	e28ee008 	add	lr, lr, #8	; 0x8
    70e0:	e1a0000c 	mov	r0, ip
    70e4:	e4902004 	ldr	r2, [r0], #4
    70e8:	e1a0100e 	mov	r1, lr
    70ec:	e4812004 	str	r2, [r1], #4
    70f0:	e59c3004 	ldr	r3, [ip, #4]
    70f4:	e58e3004 	str	r3, [lr, #4]
    70f8:	e5902004 	ldr	r2, [r0, #4]
    70fc:	e5812004 	str	r2, [r1, #4]
    7100:	e1a0100b 	mov	r1, fp
    7104:	e59d0004 	ldr	r0, [sp, #4]
    7108:	ebfff6b4 	bl	4be0 <_free_r>
    710c:	e59d0004 	ldr	r0, [sp, #4]
    7110:	ebfffbc9 	bl	603c <__malloc_unlock>
    7114:	eaffffa1 	b	6fa0 <_realloc_r+0x1d8>
    7118:	e1a01002 	mov	r1, r2
    711c:	e28dd008 	add	sp, sp, #8	; 0x8
    7120:	e8bd4ff0 	pop	{r4, r5, r6, r7, r8, r9, sl, fp, lr}
    7124:	eafff92b 	b	55d8 <_malloc_r>
    7128:	e5983004 	ldr	r3, [r8, #4]
    712c:	e3c31003 	bic	r1, r3, #3	; 0x3
    7130:	e0812005 	add	r2, r1, r5
    7134:	e28a3010 	add	r3, sl, #16	; 0x10
    7138:	e1520003 	cmp	r2, r3
    713c:	b1a00008 	movlt	r0, r8
    7140:	baffff48 	blt	6e68 <_realloc_r+0xa0>
    7144:	e06a3002 	rsb	r3, sl, r2
    7148:	e084100a 	add	r1, r4, sl
    714c:	e3833001 	orr	r3, r3, #1	; 0x1
    7150:	e5813004 	str	r3, [r1, #4]
    7154:	e5942004 	ldr	r2, [r4, #4]
    7158:	e2022001 	and	r2, r2, #1	; 0x1
    715c:	e18a2002 	orr	r2, sl, r2
    7160:	e5842004 	str	r2, [r4, #4]
    7164:	e59f2168 	ldr	r2, [pc, #360]	; 72d4 <_realloc_r+0x50c>
    7168:	e59d0004 	ldr	r0, [sp, #4]
    716c:	e5821008 	str	r1, [r2, #8]
    7170:	e2846008 	add	r6, r4, #8	; 0x8
    7174:	ebfffbb0 	bl	603c <__malloc_unlock>
    7178:	eaffff88 	b	6fa0 <_realloc_r+0x1d8>
    717c:	e1a02001 	mov	r2, r1
    7180:	e1a0100b 	mov	r1, fp
    7184:	ebfffb26 	bl	5e24 <memmove>
    7188:	eaffffdc 	b	7100 <_realloc_r+0x338>
    718c:	e1a0100b 	mov	r1, fp
    7190:	e1a02005 	mov	r2, r5
    7194:	e58dc000 	str	ip, [sp]
    7198:	ebfffb21 	bl	5e24 <memmove>
    719c:	e59dc000 	ldr	ip, [sp]
    71a0:	e1a0400c 	mov	r4, ip
    71a4:	e59c1004 	ldr	r1, [ip, #4]
    71a8:	eaffff6f 	b	6f6c <_realloc_r+0x1a4>
    71ac:	e59d2004 	ldr	r2, [sp, #4]
    71b0:	e3a0300c 	mov	r3, #12	; 0xc
    71b4:	e5823000 	str	r3, [r2]
    71b8:	e3a06000 	mov	r6, #0	; 0x0
    71bc:	eaffff77 	b	6fa0 <_realloc_r+0x1d8>
    71c0:	e0829005 	add	r9, r2, r5
    71c4:	e0818009 	add	r8, r1, r9
    71c8:	e28a3010 	add	r3, sl, #16	; 0x10
    71cc:	e1580003 	cmp	r8, r3
    71d0:	baffff91 	blt	701c <_realloc_r+0x254>
    71d4:	e1a0600c 	mov	r6, ip
    71d8:	e59c200c 	ldr	r2, [ip, #12]
    71dc:	e5b63008 	ldr	r3, [r6, #8]!
    71e0:	e2450004 	sub	r0, r5, #4	; 0x4
    71e4:	e3500024 	cmp	r0, #36	; 0x24
    71e8:	e5823008 	str	r3, [r2, #8]
    71ec:	e583200c 	str	r2, [r3, #12]
    71f0:	8a000030 	bhi	72b8 <_realloc_r+0x4f0>
    71f4:	e3500013 	cmp	r0, #19	; 0x13
    71f8:	e1a0e00b 	mov	lr, fp
    71fc:	e1a04006 	mov	r4, r6
    7200:	9a000017 	bls	7264 <_realloc_r+0x49c>
    7204:	e59b3000 	ldr	r3, [fp]
    7208:	e58c3008 	str	r3, [ip, #8]
    720c:	e59b2004 	ldr	r2, [fp, #4]
    7210:	e28b3004 	add	r3, fp, #4	; 0x4
    7214:	e350001b 	cmp	r0, #27	; 0x1b
    7218:	e58c200c 	str	r2, [ip, #12]
    721c:	e28c4010 	add	r4, ip, #16	; 0x10
    7220:	e283e004 	add	lr, r3, #4	; 0x4
    7224:	9a00000e 	bls	7264 <_realloc_r+0x49c>
    7228:	e5933004 	ldr	r3, [r3, #4]
    722c:	e58c3010 	str	r3, [ip, #16]
    7230:	e59e2004 	ldr	r2, [lr, #4]
    7234:	e28e3004 	add	r3, lr, #4	; 0x4
    7238:	e3500024 	cmp	r0, #36	; 0x24
    723c:	e58c2014 	str	r2, [ip, #20]
    7240:	e28c4018 	add	r4, ip, #24	; 0x18
    7244:	e283e004 	add	lr, r3, #4	; 0x4
    7248:	1a000005 	bne	7264 <_realloc_r+0x49c>
    724c:	e5933004 	ldr	r3, [r3, #4]
    7250:	e58c3018 	str	r3, [ip, #24]
    7254:	e59e2004 	ldr	r2, [lr, #4]
    7258:	e58c201c 	str	r2, [ip, #28]
    725c:	e28ee008 	add	lr, lr, #8	; 0x8
    7260:	e28c4020 	add	r4, ip, #32	; 0x20
    7264:	e1a0000e 	mov	r0, lr
    7268:	e4902004 	ldr	r2, [r0], #4
    726c:	e1a01004 	mov	r1, r4
    7270:	e4812004 	str	r2, [r1], #4
    7274:	e59e3004 	ldr	r3, [lr, #4]
    7278:	e5843004 	str	r3, [r4, #4]
    727c:	e5902004 	ldr	r2, [r0, #4]
    7280:	e5812004 	str	r2, [r1, #4]
    7284:	e06a3008 	rsb	r3, sl, r8
    7288:	e08c100a 	add	r1, ip, sl
    728c:	e3833001 	orr	r3, r3, #1	; 0x1
    7290:	e5813004 	str	r3, [r1, #4]
    7294:	e59c2004 	ldr	r2, [ip, #4]
    7298:	e59f3034 	ldr	r3, [pc, #52]	; 72d4 <_realloc_r+0x50c>
    729c:	e2022001 	and	r2, r2, #1	; 0x1
    72a0:	e18a2002 	orr	r2, sl, r2
    72a4:	e58c2004 	str	r2, [ip, #4]
    72a8:	e59d0004 	ldr	r0, [sp, #4]
    72ac:	e5831008 	str	r1, [r3, #8]
    72b0:	ebfffb61 	bl	603c <__malloc_unlock>
    72b4:	eaffff39 	b	6fa0 <_realloc_r+0x1d8>
    72b8:	e1a02000 	mov	r2, r0
    72bc:	e1a0100b 	mov	r1, fp
    72c0:	e1a00006 	mov	r0, r6
    72c4:	e58dc000 	str	ip, [sp]
    72c8:	ebfffad5 	bl	5e24 <memmove>
    72cc:	e59dc000 	ldr	ip, [sp]
    72d0:	eaffffeb 	b	7284 <_realloc_r+0x4bc>
    72d4:	00200414 	.word	0x00200414

000072d8 <__isinfd>:
    72d8:	e52d4004 	push	{r4}		; (str r4, [sp, #-4]!)
    72dc:	e1a04001 	mov	r4, r1
    72e0:	e2611000 	rsb	r1, r1, #0	; 0x0
    72e4:	e1811004 	orr	r1, r1, r4
    72e8:	e3c03102 	bic	r3, r0, #-2147483648	; 0x80000000
    72ec:	e3a0247f 	mov	r2, #2130706432	; 0x7f000000
    72f0:	e1833fa1 	orr	r3, r3, r1, lsr #31
    72f4:	e282260f 	add	r2, r2, #15728640	; 0xf00000
    72f8:	e0632002 	rsb	r2, r3, r2
    72fc:	e2620000 	rsb	r0, r2, #0	; 0x0
    7300:	e1800002 	orr	r0, r0, r2
    7304:	e1a00fc0 	asr	r0, r0, #31
    7308:	e2800001 	add	r0, r0, #1	; 0x1
    730c:	e8bd0010 	pop	{r4}
    7310:	e12fff1e 	bx	lr

00007314 <__isnand>:
    7314:	e2612000 	rsb	r2, r1, #0	; 0x0
    7318:	e1822001 	orr	r2, r2, r1
    731c:	e3c03102 	bic	r3, r0, #-2147483648	; 0x80000000
    7320:	e3a0047f 	mov	r0, #2130706432	; 0x7f000000
    7324:	e1833fa2 	orr	r3, r3, r2, lsr #31
    7328:	e280060f 	add	r0, r0, #15728640	; 0xf00000
    732c:	e0630000 	rsb	r0, r3, r0
    7330:	e52d4004 	push	{r4}		; (str r4, [sp, #-4]!)
    7334:	e1a00fa0 	lsr	r0, r0, #31
    7338:	e1a04001 	mov	r4, r1
    733c:	e8bd0010 	pop	{r4}
    7340:	e12fff1e 	bx	lr

00007344 <_sbrk_r>:
    7344:	e92d4030 	push	{r4, r5, lr}
    7348:	e59f4028 	ldr	r4, [pc, #40]	; 7378 <_sbrk_r+0x34>
    734c:	e3a03000 	mov	r3, #0	; 0x0
    7350:	e1a05000 	mov	r5, r0
    7354:	e1a00001 	mov	r0, r1
    7358:	e5843000 	str	r3, [r4]
    735c:	eb0001a1 	bl	79e8 <_sbrk>
    7360:	e3700001 	cmn	r0, #1	; 0x1
    7364:	18bd8030 	popne	{r4, r5, pc}
    7368:	e5943000 	ldr	r3, [r4]
    736c:	e3530000 	cmp	r3, #0	; 0x0
    7370:	15853000 	strne	r3, [r5]
    7374:	e8bd8030 	pop	{r4, r5, pc}
    7378:	00200914 	.word	0x00200914

0000737c <__sclose>:
    737c:	e1d110fe 	ldrsh	r1, [r1, #14]
    7380:	ea000300 	b	7f88 <_close_r>

00007384 <__sseek>:
    7384:	e92d4010 	push	{r4, lr}
    7388:	e1a04001 	mov	r4, r1
    738c:	e1d110fe 	ldrsh	r1, [r1, #14]
    7390:	eb000363 	bl	8124 <_lseek_r>
    7394:	e3700001 	cmn	r0, #1	; 0x1
    7398:	01d430bc 	ldrheq	r3, [r4, #12]
    739c:	11d430bc 	ldrhne	r3, [r4, #12]
    73a0:	03c33a01 	biceq	r3, r3, #4096	; 0x1000
    73a4:	13833a01 	orrne	r3, r3, #4096	; 0x1000
    73a8:	01c430bc 	strheq	r3, [r4, #12]
    73ac:	11c430bc 	strhne	r3, [r4, #12]
    73b0:	15840050 	strne	r0, [r4, #80]
    73b4:	e8bd8010 	pop	{r4, pc}

000073b8 <__swrite>:
    73b8:	e92d40f0 	push	{r4, r5, r6, r7, lr}
    73bc:	e1a04001 	mov	r4, r1
    73c0:	e1d110bc 	ldrh	r1, [r1, #12]
    73c4:	e3110c01 	tst	r1, #256	; 0x100
    73c8:	e1a06002 	mov	r6, r2
    73cc:	e1a07003 	mov	r7, r3
    73d0:	e1a05000 	mov	r5, r0
    73d4:	0a000004 	beq	73ec <__swrite+0x34>
    73d8:	e1d410fe 	ldrsh	r1, [r4, #14]
    73dc:	e3a02000 	mov	r2, #0	; 0x0
    73e0:	e3a03002 	mov	r3, #2	; 0x2
    73e4:	eb00034e 	bl	8124 <_lseek_r>
    73e8:	e1d410bc 	ldrh	r1, [r4, #12]
    73ec:	e3c13a01 	bic	r3, r1, #4096	; 0x1000
    73f0:	e1d410fe 	ldrsh	r1, [r4, #14]
    73f4:	e1c430bc 	strh	r3, [r4, #12]
    73f8:	e1a00005 	mov	r0, r5
    73fc:	e1a02006 	mov	r2, r6
    7400:	e1a03007 	mov	r3, r7
    7404:	e8bd40f0 	pop	{r4, r5, r6, r7, lr}
    7408:	ea0002a7 	b	7eac <_write_r>

0000740c <__sread>:
    740c:	e92d4010 	push	{r4, lr}
    7410:	e1a04001 	mov	r4, r1
    7414:	e1d110fe 	ldrsh	r1, [r1, #14]
    7418:	eb000351 	bl	8164 <_read_r>
    741c:	e3500000 	cmp	r0, #0	; 0x0
    7420:	a5943050 	ldrge	r3, [r4, #80]
    7424:	b1d430bc 	ldrhlt	r3, [r4, #12]
    7428:	a0833000 	addge	r3, r3, r0
    742c:	b3c33a01 	biclt	r3, r3, #4096	; 0x1000
    7430:	a5843050 	strge	r3, [r4, #80]
    7434:	b1c430bc 	strhlt	r3, [r4, #12]
    7438:	e8bd8010 	pop	{r4, pc}

0000743c <strcmp>:
    743c:	e1813000 	orr	r3, r1, r0
    7440:	e3130003 	tst	r3, #3	; 0x3
    7444:	e1a02000 	mov	r2, r0
    7448:	1a000023 	bne	74dc <strcmp+0xa0>
    744c:	e5902000 	ldr	r2, [r0]
    7450:	e5913000 	ldr	r3, [r1]
    7454:	e1520003 	cmp	r2, r3
    7458:	e1a0c001 	mov	ip, r1
    745c:	1a00001c 	bne	74d4 <strcmp+0x98>
    7460:	e28234ff 	add	r3, r2, #-16777216	; 0xff000000
    7464:	e2433801 	sub	r3, r3, #65536	; 0x10000
    7468:	e2433c01 	sub	r3, r3, #256	; 0x100
    746c:	e2433001 	sub	r3, r3, #1	; 0x1
    7470:	e1e02002 	mvn	r2, r2
    7474:	e0033002 	and	r3, r3, r2
    7478:	e3c3347f 	bic	r3, r3, #2130706432	; 0x7f000000
    747c:	e3c3387f 	bic	r3, r3, #8323072	; 0x7f0000
    7480:	e3c33c7f 	bic	r3, r3, #32512	; 0x7f00
    7484:	e3c3307f 	bic	r3, r3, #127	; 0x7f
    7488:	e3530000 	cmp	r3, #0	; 0x0
    748c:	0a000002 	beq	749c <strcmp+0x60>
    7490:	ea000021 	b	751c <strcmp+0xe0>
    7494:	e3520000 	cmp	r2, #0	; 0x0
    7498:	1a00001f 	bne	751c <strcmp+0xe0>
    749c:	e5b01004 	ldr	r1, [r0, #4]!
    74a0:	e28134ff 	add	r3, r1, #-16777216	; 0xff000000
    74a4:	e2433801 	sub	r3, r3, #65536	; 0x10000
    74a8:	e2433c01 	sub	r3, r3, #256	; 0x100
    74ac:	e1e02001 	mvn	r2, r1
    74b0:	e2433001 	sub	r3, r3, #1	; 0x1
    74b4:	e0033002 	and	r3, r3, r2
    74b8:	e3c3247f 	bic	r2, r3, #2130706432	; 0x7f000000
    74bc:	e5bc3004 	ldr	r3, [ip, #4]!
    74c0:	e3c2287f 	bic	r2, r2, #8323072	; 0x7f0000
    74c4:	e3c22c7f 	bic	r2, r2, #32512	; 0x7f00
    74c8:	e1510003 	cmp	r1, r3
    74cc:	e3c2207f 	bic	r2, r2, #127	; 0x7f
    74d0:	0affffef 	beq	7494 <strcmp+0x58>
    74d4:	e1a02000 	mov	r2, r0
    74d8:	e1a0100c 	mov	r1, ip
    74dc:	e5d23000 	ldrb	r3, [r2]
    74e0:	e3530000 	cmp	r3, #0	; 0x0
    74e4:	1a000004 	bne	74fc <strcmp+0xc0>
    74e8:	ea000008 	b	7510 <strcmp+0xd4>
    74ec:	e5f23001 	ldrb	r3, [r2, #1]!
    74f0:	e3530000 	cmp	r3, #0	; 0x0
    74f4:	e2811001 	add	r1, r1, #1	; 0x1
    74f8:	0a000004 	beq	7510 <strcmp+0xd4>
    74fc:	e5d10000 	ldrb	r0, [r1]
    7500:	e1500003 	cmp	r0, r3
    7504:	0afffff8 	beq	74ec <strcmp+0xb0>
    7508:	e0600003 	rsb	r0, r0, r3
    750c:	e12fff1e 	bx	lr
    7510:	e5d10000 	ldrb	r0, [r1]
    7514:	e0600003 	rsb	r0, r0, r3
    7518:	e12fff1e 	bx	lr
    751c:	e3a00000 	mov	r0, #0	; 0x0
    7520:	e12fff1e 	bx	lr

00007524 <strlen>:
    7524:	e3100003 	tst	r0, #3	; 0x3
    7528:	e1a01000 	mov	r1, r0
    752c:	11a00000 	movne	r0, r0
    7530:	1a00001a 	bne	75a0 <strlen+0x7c>
    7534:	e5912000 	ldr	r2, [r1]
    7538:	e28234ff 	add	r3, r2, #-16777216	; 0xff000000
    753c:	e2433801 	sub	r3, r3, #65536	; 0x10000
    7540:	e2433c01 	sub	r3, r3, #256	; 0x100
    7544:	e2433001 	sub	r3, r3, #1	; 0x1
    7548:	e1e02002 	mvn	r2, r2
    754c:	e0033002 	and	r3, r3, r2
    7550:	e3c3347f 	bic	r3, r3, #2130706432	; 0x7f000000
    7554:	e3c3387f 	bic	r3, r3, #8323072	; 0x7f0000
    7558:	e3c33c7f 	bic	r3, r3, #32512	; 0x7f00
    755c:	e3c3307f 	bic	r3, r3, #127	; 0x7f
    7560:	e3530000 	cmp	r3, #0	; 0x0
    7564:	e1a00001 	mov	r0, r1
    7568:	1a00000c 	bne	75a0 <strlen+0x7c>
    756c:	e5b02004 	ldr	r2, [r0, #4]!
    7570:	e28234ff 	add	r3, r2, #-16777216	; 0xff000000
    7574:	e2433801 	sub	r3, r3, #65536	; 0x10000
    7578:	e2433c01 	sub	r3, r3, #256	; 0x100
    757c:	e2433001 	sub	r3, r3, #1	; 0x1
    7580:	e1e02002 	mvn	r2, r2
    7584:	e0033002 	and	r3, r3, r2
    7588:	e3c3347f 	bic	r3, r3, #2130706432	; 0x7f000000
    758c:	e3c3387f 	bic	r3, r3, #8323072	; 0x7f0000
    7590:	e3c33c7f 	bic	r3, r3, #32512	; 0x7f00
    7594:	e3c3307f 	bic	r3, r3, #127	; 0x7f
    7598:	e3530000 	cmp	r3, #0	; 0x0
    759c:	0afffff2 	beq	756c <strlen+0x48>
    75a0:	e5d03000 	ldrb	r3, [r0]
    75a4:	e3530000 	cmp	r3, #0	; 0x0
    75a8:	0a000002 	beq	75b8 <strlen+0x94>
    75ac:	e5f03001 	ldrb	r3, [r0, #1]!
    75b0:	e3530000 	cmp	r3, #0	; 0x0
    75b4:	1afffffc 	bne	75ac <strlen+0x88>
    75b8:	e0610000 	rsb	r0, r1, r0
    75bc:	e12fff1e 	bx	lr

000075c0 <initialise_monitor_handles>:
    75c0:	e92d47f0 	push	{r4, r5, r6, r7, r8, r9, sl, lr}
    75c4:	e59f7094 	ldr	r7, [pc, #148]	; 7660 <initialise_monitor_handles+0xa0>
    75c8:	e24dd00c 	sub	sp, sp, #12	; 0xc
    75cc:	e3a08003 	mov	r8, #3	; 0x3
    75d0:	e3a0a000 	mov	sl, #0	; 0x0
    75d4:	e58d7000 	str	r7, [sp]
    75d8:	e3a06001 	mov	r6, #1	; 0x1
    75dc:	e58d8008 	str	r8, [sp, #8]
    75e0:	e58da004 	str	sl, [sp, #4]
    75e4:	e1a00006 	mov	r0, r6
    75e8:	e1a0100d 	mov	r1, sp
    75ec:	ef123456 	svc	0x00123456
    75f0:	e1a04000 	mov	r4, r0
    75f4:	e59f9068 	ldr	r9, [pc, #104]	; 7664 <initialise_monitor_handles+0xa4>
    75f8:	e5894000 	str	r4, [r9]
    75fc:	e3a04004 	mov	r4, #4	; 0x4
    7600:	e58d7000 	str	r7, [sp]
    7604:	e58d8008 	str	r8, [sp, #8]
    7608:	e58d4004 	str	r4, [sp, #4]
    760c:	e1a00006 	mov	r0, r6
    7610:	e1a0100d 	mov	r1, sp
    7614:	ef123456 	svc	0x00123456
    7618:	e1a05000 	mov	r5, r0
    761c:	e59f4044 	ldr	r4, [pc, #68]	; 7668 <initialise_monitor_handles+0xa8>
    7620:	e59f3044 	ldr	r3, [pc, #68]	; 766c <initialise_monitor_handles+0xac>
    7624:	e5845000 	str	r5, [r4]
    7628:	e59f2040 	ldr	r2, [pc, #64]	; 7670 <initialise_monitor_handles+0xb0>
    762c:	e5835000 	str	r5, [r3]
    7630:	e3e03000 	mvn	r3, #0	; 0x0
    7634:	e782300a 	str	r3, [r2, sl]
    7638:	e28aa008 	add	sl, sl, #8	; 0x8
    763c:	e35a00a0 	cmp	sl, #160	; 0xa0
    7640:	e59f1028 	ldr	r1, [pc, #40]	; 7670 <initialise_monitor_handles+0xb0>
    7644:	1afffffa 	bne	7634 <initialise_monitor_handles+0x74>
    7648:	e5992000 	ldr	r2, [r9]
    764c:	e3a03000 	mov	r3, #0	; 0x0
    7650:	e581300c 	str	r3, [r1, #12]
    7654:	e881002c 	stm	r1, {r2, r3, r5}
    7658:	e28dd00c 	add	sp, sp, #12	; 0xc
    765c:	e8bd87f0 	pop	{r4, r5, r6, r7, r8, r9, sl, pc}
    7660:	00009050 	.word	0x00009050
    7664:	00200868 	.word	0x00200868
    7668:	00200870 	.word	0x00200870
    766c:	0020086c 	.word	0x0020086c
    7670:	00200874 	.word	0x00200874

00007674 <_kill>:
    7674:	e3510006 	cmp	r1, #6	; 0x6
    7678:	e92d4030 	push	{r4, r5, lr}
    767c:	0a000008 	beq	76a4 <_kill+0x30>
    7680:	e3a04802 	mov	r4, #131072	; 0x20000
    7684:	e2844026 	add	r4, r4, #38	; 0x26
    7688:	e3a05018 	mov	r5, #24	; 0x18
    768c:	e1a00005 	mov	r0, r5
    7690:	e1a01004 	mov	r1, r4
    7694:	ef123456 	svc	0x00123456
    7698:	e1a04000 	mov	r4, r0
    769c:	e1a00004 	mov	r0, r4
    76a0:	e8bd8030 	pop	{r4, r5, pc}
    76a4:	e3a04802 	mov	r4, #131072	; 0x20000
    76a8:	e2844023 	add	r4, r4, #35	; 0x23
    76ac:	e3a05018 	mov	r5, #24	; 0x18
    76b0:	e1a00005 	mov	r0, r5
    76b4:	e1a01004 	mov	r1, r4
    76b8:	ef123456 	svc	0x00123456
    76bc:	e1a04000 	mov	r4, r0
    76c0:	e1a00004 	mov	r0, r4
    76c4:	e8bd8030 	pop	{r4, r5, pc}

000076c8 <_exit>:
    76c8:	e3a04802 	mov	r4, #131072	; 0x20000
    76cc:	e2844026 	add	r4, r4, #38	; 0x26
    76d0:	e3a05018 	mov	r5, #24	; 0x18
    76d4:	e1a00005 	mov	r0, r5
    76d8:	e1a01004 	mov	r1, r4
    76dc:	ef123456 	svc	0x00123456
    76e0:	e1a04000 	mov	r4, r0
    76e4:	e12fff1e 	bx	lr

000076e8 <_getpid>:
    76e8:	e3a00001 	mov	r0, #1	; 0x1
    76ec:	e12fff1e 	bx	lr

000076f0 <_link>:
    76f0:	e3e00000 	mvn	r0, #0	; 0x0
    76f4:	e12fff1e 	bx	lr

000076f8 <_raise>:
    76f8:	e12fff1e 	bx	lr

000076fc <_gettimeofday>:
    76fc:	e92d40f0 	push	{r4, r5, r6, r7, lr}
    7700:	e2507000 	subs	r7, r0, #0	; 0x0
    7704:	e1a06001 	mov	r6, r1
    7708:	0a000006 	beq	7728 <_gettimeofday+0x2c>
    770c:	e3a05000 	mov	r5, #0	; 0x0
    7710:	e3a04011 	mov	r4, #17	; 0x11
    7714:	e1a00004 	mov	r0, r4
    7718:	e1a01005 	mov	r1, r5
    771c:	ef123456 	svc	0x00123456
    7720:	e1a04000 	mov	r4, r0
    7724:	e8870030 	stm	r7, {r4, r5}
    7728:	e3560000 	cmp	r6, #0	; 0x0
    772c:	13a03000 	movne	r3, #0	; 0x0
    7730:	15863004 	strne	r3, [r6, #4]
    7734:	15863000 	strne	r3, [r6]
    7738:	e3a00000 	mov	r0, #0	; 0x0
    773c:	e8bd80f0 	pop	{r4, r5, r6, r7, pc}

00007740 <_times>:
    7740:	e92d4070 	push	{r4, r5, r6, lr}
    7744:	e1a05000 	mov	r5, r0
    7748:	e3a06000 	mov	r6, #0	; 0x0
    774c:	e3a04010 	mov	r4, #16	; 0x10
    7750:	e1a00004 	mov	r0, r4
    7754:	e1a01006 	mov	r1, r6
    7758:	ef123456 	svc	0x00123456
    775c:	e1a04000 	mov	r4, r0
    7760:	e1550006 	cmp	r5, r6
    7764:	1585600c 	strne	r6, [r5, #12]
    7768:	15854000 	strne	r4, [r5]
    776c:	15856004 	strne	r6, [r5, #4]
    7770:	15856008 	strne	r6, [r5, #8]
    7774:	e1a00004 	mov	r0, r4
    7778:	e8bd8070 	pop	{r4, r5, r6, pc}

0000777c <wrap>:
    777c:	e3700001 	cmn	r0, #1	; 0x1
    7780:	e92d40f0 	push	{r4, r5, r6, r7, lr}
    7784:	e1a07000 	mov	r7, r0
    7788:	0a000001 	beq	7794 <wrap+0x18>
    778c:	e1a00007 	mov	r0, r7
    7790:	e8bd80f0 	pop	{r4, r5, r6, r7, pc}
    7794:	eb000209 	bl	7fc0 <__errno>
    7798:	e3a05000 	mov	r5, #0	; 0x0
    779c:	e1a06000 	mov	r6, r0
    77a0:	e3a04013 	mov	r4, #19	; 0x13
    77a4:	e1a00004 	mov	r0, r4
    77a8:	e1a01005 	mov	r1, r5
    77ac:	ef123456 	svc	0x00123456
    77b0:	e1a04000 	mov	r4, r0
    77b4:	e5864000 	str	r4, [r6]
    77b8:	eafffff3 	b	778c <wrap+0x10>

000077bc <_rename>:
    77bc:	e92d4030 	push	{r4, r5, lr}
    77c0:	e24dd010 	sub	sp, sp, #16	; 0x10
    77c4:	e1a04001 	mov	r4, r1
    77c8:	e58d0000 	str	r0, [sp]
    77cc:	ebffff54 	bl	7524 <strlen>
    77d0:	e58d0004 	str	r0, [sp, #4]
    77d4:	e1a00004 	mov	r0, r4
    77d8:	e58d4008 	str	r4, [sp, #8]
    77dc:	ebffff50 	bl	7524 <strlen>
    77e0:	e3a0400f 	mov	r4, #15	; 0xf
    77e4:	e58d000c 	str	r0, [sp, #12]
    77e8:	e1a0500d 	mov	r5, sp
    77ec:	e1a00004 	mov	r0, r4
    77f0:	e1a0100d 	mov	r1, sp
    77f4:	ef123456 	svc	0x00123456
    77f8:	e1a04000 	mov	r4, r0
    77fc:	e1a00004 	mov	r0, r4
    7800:	ebffffdd 	bl	777c <wrap>
    7804:	e3500000 	cmp	r0, #0	; 0x0
    7808:	13e00000 	mvnne	r0, #0	; 0x0
    780c:	e28dd010 	add	sp, sp, #16	; 0x10
    7810:	e8bd8030 	pop	{r4, r5, pc}

00007814 <_system>:
    7814:	e92d4030 	push	{r4, r5, lr}
    7818:	e2503000 	subs	r3, r0, #0	; 0x0
    781c:	e24dd008 	sub	sp, sp, #8	; 0x8
    7820:	02800001 	addeq	r0, r0, #1	; 0x1
    7824:	0a00001a 	beq	7894 <_system+0x80>
    7828:	e58d3000 	str	r3, [sp]
    782c:	ebffff3c 	bl	7524 <strlen>
    7830:	e3a04012 	mov	r4, #18	; 0x12
    7834:	e58d0004 	str	r0, [sp, #4]
    7838:	e1a0500d 	mov	r5, sp
    783c:	e1a00004 	mov	r0, r4
    7840:	e1a0100d 	mov	r1, sp
    7844:	ef123456 	svc	0x00123456
    7848:	e1a04000 	mov	r4, r0
    784c:	e1a00004 	mov	r0, r4
    7850:	ebffffc9 	bl	777c <wrap>
    7854:	e35000ff 	cmp	r0, #255	; 0xff
    7858:	e1a02000 	mov	r2, r0
    785c:	8a00000e 	bhi	789c <_system+0x88>
    7860:	e3500000 	cmp	r0, #0	; 0x0
    7864:	0a00000c 	beq	789c <_system+0x88>
    7868:	e1a03440 	asr	r3, r0, #8
    786c:	e20330ff 	and	r3, r3, #255	; 0xff
    7870:	e1500003 	cmp	r0, r3
    7874:	1a000002 	bne	7884 <_system+0x70>
    7878:	ea000007 	b	789c <_system+0x88>
    787c:	e1520003 	cmp	r2, r3
    7880:	0a000003 	beq	7894 <_system+0x80>
    7884:	e1b00080 	lsls	r0, r0, #1
    7888:	e1a03440 	asr	r3, r0, #8
    788c:	e20330ff 	and	r3, r3, #255	; 0xff
    7890:	1afffff9 	bne	787c <_system+0x68>
    7894:	e28dd008 	add	sp, sp, #8	; 0x8
    7898:	e8bd8030 	pop	{r4, r5, pc}
    789c:	e1a00002 	mov	r0, r2
    78a0:	eafffffb 	b	7894 <_system+0x80>

000078a4 <_unlink>:
    78a4:	e92d4030 	push	{r4, r5, lr}
    78a8:	e24dd008 	sub	sp, sp, #8	; 0x8
    78ac:	e58d0000 	str	r0, [sp]
    78b0:	ebffff1b 	bl	7524 <strlen>
    78b4:	e3a0500e 	mov	r5, #14	; 0xe
    78b8:	e58d0004 	str	r0, [sp, #4]
    78bc:	e1a0400d 	mov	r4, sp
    78c0:	e1a00005 	mov	r0, r5
    78c4:	e1a0100d 	mov	r1, sp
    78c8:	ef123456 	svc	0x00123456
    78cc:	e1a05000 	mov	r5, r0
    78d0:	e1a00005 	mov	r0, r5
    78d4:	ebffffa8 	bl	777c <wrap>
    78d8:	e3500000 	cmp	r0, #0	; 0x0
    78dc:	13e00000 	mvnne	r0, #0	; 0x0
    78e0:	e28dd008 	add	sp, sp, #8	; 0x8
    78e4:	e8bd8030 	pop	{r4, r5, pc}

000078e8 <_swiopen>:
    78e8:	e92d41f0 	push	{r4, r5, r6, r7, r8, lr}
    78ec:	e59f80d0 	ldr	r8, [pc, #208]	; 79c4 <_swiopen+0xdc>
    78f0:	e24dd00c 	sub	sp, sp, #12	; 0xc
    78f4:	e1a02000 	mov	r2, r0
    78f8:	e3a06000 	mov	r6, #0	; 0x0
    78fc:	e7983186 	ldr	r3, [r8, r6, lsl #3]
    7900:	e3730001 	cmn	r3, #1	; 0x1
    7904:	0a000006 	beq	7924 <_swiopen+0x3c>
    7908:	e2866001 	add	r6, r6, #1	; 0x1
    790c:	e3560014 	cmp	r6, #20	; 0x14
    7910:	1afffff9 	bne	78fc <_swiopen+0x14>
    7914:	e3e07000 	mvn	r7, #0	; 0x0
    7918:	e1a00007 	mov	r0, r7
    791c:	e28dd00c 	add	sp, sp, #12	; 0xc
    7920:	e8bd81f0 	pop	{r4, r5, r6, r7, r8, pc}
    7924:	e1a03821 	lsr	r3, r1, #16
    7928:	e2034001 	and	r4, r3, #1	; 0x1
    792c:	e3110002 	tst	r1, #2	; 0x2
    7930:	13844002 	orrne	r4, r4, #2	; 0x2
    7934:	e3110c02 	tst	r1, #512	; 0x200
    7938:	13844004 	orrne	r4, r4, #4	; 0x4
    793c:	e3110b01 	tst	r1, #1024	; 0x400
    7940:	13844004 	orrne	r4, r4, #4	; 0x4
    7944:	e3110008 	tst	r1, #8	; 0x8
    7948:	13c43004 	bicne	r3, r4, #4	; 0x4
    794c:	e1a00002 	mov	r0, r2
    7950:	13834008 	orrne	r4, r3, #8	; 0x8
    7954:	e58d2000 	str	r2, [sp]
    7958:	ebfffef1 	bl	7524 <strlen>
    795c:	e58d4004 	str	r4, [sp, #4]
    7960:	e58d0008 	str	r0, [sp, #8]
    7964:	e1a0500d 	mov	r5, sp
    7968:	e3a04001 	mov	r4, #1	; 0x1
    796c:	e1a00004 	mov	r0, r4
    7970:	e1a0100d 	mov	r1, sp
    7974:	ef123456 	svc	0x00123456
    7978:	e1a07000 	mov	r7, r0
    797c:	e3570000 	cmp	r7, #0	; 0x0
    7980:	a1a03416 	lslge	r3, r6, r4
    7984:	a3a02000 	movge	r2, #0	; 0x0
    7988:	a0833004 	addge	r3, r3, r4
    798c:	a7887186 	strge	r7, [r8, r6, lsl #3]
    7990:	a7882103 	strge	r2, [r8, r3, lsl #2]
    7994:	a2877020 	addge	r7, r7, #32	; 0x20
    7998:	aaffffde 	bge	7918 <_swiopen+0x30>
    799c:	eb000187 	bl	7fc0 <__errno>
    79a0:	e3a05000 	mov	r5, #0	; 0x0
    79a4:	e1a06000 	mov	r6, r0
    79a8:	e3a04013 	mov	r4, #19	; 0x13
    79ac:	e1a00004 	mov	r0, r4
    79b0:	e1a01005 	mov	r1, r5
    79b4:	ef123456 	svc	0x00123456
    79b8:	e1a04000 	mov	r4, r0
    79bc:	e5864000 	str	r4, [r6]
    79c0:	eaffffd4 	b	7918 <_swiopen+0x30>
    79c4:	00200874 	.word	0x00200874

000079c8 <_open>:
    79c8:	e92d000e 	push	{r1, r2, r3}
    79cc:	e52de004 	push	{lr}		; (str lr, [sp, #-4]!)
    79d0:	e59d1004 	ldr	r1, [sp, #4]
    79d4:	ebffffc3 	bl	78e8 <_swiopen>
    79d8:	ebffff67 	bl	777c <wrap>
    79dc:	e49de004 	pop	{lr}		; (ldr lr, [sp], #4)
    79e0:	e28dd00c 	add	sp, sp, #12	; 0xc
    79e4:	e12fff1e 	bx	lr

000079e8 <_sbrk>:
    79e8:	e59f2044 	ldr	r2, [pc, #68]	; 7a34 <_sbrk+0x4c>
    79ec:	e5923000 	ldr	r3, [r2]
    79f0:	e3530000 	cmp	r3, #0	; 0x0
    79f4:	059f303c 	ldreq	r3, [pc, #60]	; 7a38 <_sbrk+0x50>
    79f8:	e52de004 	push	{lr}		; (str lr, [sp, #-4]!)
    79fc:	05823000 	streq	r3, [r2]
    7a00:	e1a01000 	mov	r1, r0
    7a04:	e5920000 	ldr	r0, [r2]
    7a08:	e0802001 	add	r2, r0, r1
    7a0c:	e152000d 	cmp	r2, sp
    7a10:	8a000002 	bhi	7a20 <_sbrk+0x38>
    7a14:	e59f3018 	ldr	r3, [pc, #24]	; 7a34 <_sbrk+0x4c>
    7a18:	e5832000 	str	r2, [r3]
    7a1c:	e49df004 	pop	{pc}		; (ldr pc, [sp], #4)
    7a20:	eb000166 	bl	7fc0 <__errno>
    7a24:	e3a0300c 	mov	r3, #12	; 0xc
    7a28:	e5803000 	str	r3, [r0]
    7a2c:	e3e00000 	mvn	r0, #0	; 0x0
    7a30:	e49df004 	pop	{pc}		; (ldr pc, [sp], #4)
    7a34:	00200864 	.word	0x00200864
    7a38:	00200918 	.word	0x00200918

00007a3c <remap_handle>:
    7a3c:	e59f3064 	ldr	r3, [pc, #100]	; 7aa8 <remap_handle+0x6c>
    7a40:	e5932000 	ldr	r2, [r3]
    7a44:	e3520000 	cmp	r2, #0	; 0x0
    7a48:	e92d4010 	push	{r4, lr}
    7a4c:	e1a04000 	mov	r4, r0
    7a50:	0a000002 	beq	7a60 <remap_handle+0x24>
    7a54:	e5923038 	ldr	r3, [r2, #56]
    7a58:	e3530000 	cmp	r3, #0	; 0x0
    7a5c:	0a00000b 	beq	7a90 <remap_handle+0x54>
    7a60:	e3540000 	cmp	r4, #0	; 0x0
    7a64:	0a000006 	beq	7a84 <remap_handle+0x48>
    7a68:	e3540001 	cmp	r4, #1	; 0x1
    7a6c:	0a00000a 	beq	7a9c <remap_handle+0x60>
    7a70:	e3540002 	cmp	r4, #2	; 0x2
    7a74:	059f3030 	ldreq	r3, [pc, #48]	; 7aac <remap_handle+0x70>
    7a78:	12440020 	subne	r0, r4, #32	; 0x20
    7a7c:	05930000 	ldreq	r0, [r3]
    7a80:	e8bd8010 	pop	{r4, pc}
    7a84:	e59f3024 	ldr	r3, [pc, #36]	; 7ab0 <remap_handle+0x74>
    7a88:	e5930000 	ldr	r0, [r3]
    7a8c:	e8bd8010 	pop	{r4, pc}
    7a90:	e1a00002 	mov	r0, r2
    7a94:	ebfff368 	bl	483c <__sinit>
    7a98:	eafffff0 	b	7a60 <remap_handle+0x24>
    7a9c:	e59f3010 	ldr	r3, [pc, #16]	; 7ab4 <remap_handle+0x78>
    7aa0:	e5930000 	ldr	r0, [r3]
    7aa4:	e8bd8010 	pop	{r4, pc}
    7aa8:	00200000 	.word	0x00200000
    7aac:	00200870 	.word	0x00200870
    7ab0:	00200868 	.word	0x00200868
    7ab4:	0020086c 	.word	0x0020086c

00007ab8 <isatty>:
    7ab8:	e92d4030 	push	{r4, r5, lr}
    7abc:	e24dd004 	sub	sp, sp, #4	; 0x4
    7ac0:	ebffffdd 	bl	7a3c <remap_handle>
    7ac4:	e28d5004 	add	r5, sp, #4	; 0x4
    7ac8:	e5250004 	str	r0, [r5, #-4]!
    7acc:	e3a04009 	mov	r4, #9	; 0x9
    7ad0:	e1a00004 	mov	r0, r4
    7ad4:	e1a01005 	mov	r1, r5
    7ad8:	ef123456 	svc	0x00123456
    7adc:	e1a04000 	mov	r4, r0
    7ae0:	e1a00004 	mov	r0, r4
    7ae4:	ebffff24 	bl	777c <wrap>
    7ae8:	e28dd004 	add	sp, sp, #4	; 0x4
    7aec:	e8bd8030 	pop	{r4, r5, pc}

00007af0 <_swiclose>:
    7af0:	e92d4030 	push	{r4, r5, lr}
    7af4:	e24dd004 	sub	sp, sp, #4	; 0x4
    7af8:	ebffffcf 	bl	7a3c <remap_handle>
    7afc:	e59f2050 	ldr	r2, [pc, #80]	; 7b54 <_swiclose+0x64>
    7b00:	e3a01000 	mov	r1, #0	; 0x0
    7b04:	e7923181 	ldr	r3, [r2, r1, lsl #3]
    7b08:	e1500003 	cmp	r0, r3
    7b0c:	0a00000c 	beq	7b44 <_swiclose+0x54>
    7b10:	e2811001 	add	r1, r1, #1	; 0x1
    7b14:	e3510014 	cmp	r1, #20	; 0x14
    7b18:	1afffff9 	bne	7b04 <_swiclose+0x14>
    7b1c:	e28d5004 	add	r5, sp, #4	; 0x4
    7b20:	e5250004 	str	r0, [r5, #-4]!
    7b24:	e3a04002 	mov	r4, #2	; 0x2
    7b28:	e1a00004 	mov	r0, r4
    7b2c:	e1a01005 	mov	r1, r5
    7b30:	ef123456 	svc	0x00123456
    7b34:	e1a04000 	mov	r4, r0
    7b38:	e1a00004 	mov	r0, r4
    7b3c:	e28dd004 	add	sp, sp, #4	; 0x4
    7b40:	e8bd8030 	pop	{r4, r5, pc}
    7b44:	e59f3008 	ldr	r3, [pc, #8]	; 7b54 <_swiclose+0x64>
    7b48:	e3e02000 	mvn	r2, #0	; 0x0
    7b4c:	e7832181 	str	r2, [r3, r1, lsl #3]
    7b50:	eafffff1 	b	7b1c <_swiclose+0x2c>
    7b54:	00200874 	.word	0x00200874

00007b58 <_close>:
    7b58:	e52de004 	push	{lr}		; (str lr, [sp, #-4]!)
    7b5c:	ebffffe3 	bl	7af0 <_swiclose>
    7b60:	e49de004 	pop	{lr}		; (ldr lr, [sp], #4)
    7b64:	eaffff04 	b	777c <wrap>

00007b68 <_swiwrite>:
    7b68:	e92d4070 	push	{r4, r5, r6, lr}
    7b6c:	e24dd00c 	sub	sp, sp, #12	; 0xc
    7b70:	e1a04001 	mov	r4, r1
    7b74:	e1a06002 	mov	r6, r2
    7b78:	ebffffaf 	bl	7a3c <remap_handle>
    7b7c:	e88d0051 	stm	sp, {r0, r4, r6}
    7b80:	e1a0500d 	mov	r5, sp
    7b84:	e3a04005 	mov	r4, #5	; 0x5
    7b88:	e1a00004 	mov	r0, r4
    7b8c:	e1a0100d 	mov	r1, sp
    7b90:	ef123456 	svc	0x00123456
    7b94:	e1a04000 	mov	r4, r0
    7b98:	e1a00004 	mov	r0, r4
    7b9c:	e28dd00c 	add	sp, sp, #12	; 0xc
    7ba0:	e8bd8070 	pop	{r4, r5, r6, pc}

00007ba4 <_write>:
    7ba4:	e92d41f0 	push	{r4, r5, r6, r7, r8, lr}
    7ba8:	e59f5098 	ldr	r5, [pc, #152]	; 7c48 <_write+0xa4>
    7bac:	e1a08001 	mov	r8, r1
    7bb0:	e1a06002 	mov	r6, r2
    7bb4:	e1a07000 	mov	r7, r0
    7bb8:	e3a04000 	mov	r4, #0	; 0x0
    7bbc:	ebffff9e 	bl	7a3c <remap_handle>
    7bc0:	e7953184 	ldr	r3, [r5, r4, lsl #3]
    7bc4:	e1500003 	cmp	r0, r3
    7bc8:	0a000002 	beq	7bd8 <_write+0x34>
    7bcc:	e2844001 	add	r4, r4, #1	; 0x1
    7bd0:	e3540014 	cmp	r4, #20	; 0x14
    7bd4:	1afffff9 	bne	7bc0 <_write+0x1c>
    7bd8:	e1a00007 	mov	r0, r7
    7bdc:	e1a01008 	mov	r1, r8
    7be0:	e1a02006 	mov	r2, r6
    7be4:	ebffffdf 	bl	7b68 <_swiwrite>
    7be8:	e3700001 	cmn	r0, #1	; 0x1
    7bec:	11560000 	cmpne	r6, r0
    7bf0:	0a000009 	beq	7c1c <_write+0x78>
    7bf4:	e3540014 	cmp	r4, #20	; 0x14
    7bf8:	0a000005 	beq	7c14 <_write+0x70>
    7bfc:	e1a02084 	lsl	r2, r4, #1
    7c00:	e2822001 	add	r2, r2, #1	; 0x1
    7c04:	e7953102 	ldr	r3, [r5, r2, lsl #2]
    7c08:	e0863003 	add	r3, r6, r3
    7c0c:	e0603003 	rsb	r3, r0, r3
    7c10:	e7853102 	str	r3, [r5, r2, lsl #2]
    7c14:	e0600006 	rsb	r0, r0, r6
    7c18:	e8bd81f0 	pop	{r4, r5, r6, r7, r8, pc}
    7c1c:	eb0000e7 	bl	7fc0 <__errno>
    7c20:	e3a05000 	mov	r5, #0	; 0x0
    7c24:	e1a06000 	mov	r6, r0
    7c28:	e3a04013 	mov	r4, #19	; 0x13
    7c2c:	e1a00004 	mov	r0, r4
    7c30:	e1a01005 	mov	r1, r5
    7c34:	ef123456 	svc	0x00123456
    7c38:	e1a04000 	mov	r4, r0
    7c3c:	e3e00000 	mvn	r0, #0	; 0x0
    7c40:	e5864000 	str	r4, [r6]
    7c44:	e8bd81f0 	pop	{r4, r5, r6, r7, r8, pc}
    7c48:	00200874 	.word	0x00200874

00007c4c <_swilseek>:
    7c4c:	e92d45f0 	push	{r4, r5, r6, r7, r8, sl, lr}
    7c50:	e24dd008 	sub	sp, sp, #8	; 0x8
    7c54:	e59f80e0 	ldr	r8, [pc, #224]	; 7d3c <_swilseek+0xf0>
    7c58:	e1a07001 	mov	r7, r1
    7c5c:	e1a04002 	mov	r4, r2
    7c60:	e1a0a000 	mov	sl, r0
    7c64:	e3a05000 	mov	r5, #0	; 0x0
    7c68:	ebffff73 	bl	7a3c <remap_handle>
    7c6c:	e7983185 	ldr	r3, [r8, r5, lsl #3]
    7c70:	e1500003 	cmp	r0, r3
    7c74:	0a000002 	beq	7c84 <_swilseek+0x38>
    7c78:	e2855001 	add	r5, r5, #1	; 0x1
    7c7c:	e3550014 	cmp	r5, #20	; 0x14
    7c80:	1afffff9 	bne	7c6c <_swilseek+0x20>
    7c84:	e3540001 	cmp	r4, #1	; 0x1
    7c88:	0a000023 	beq	7d1c <_swilseek+0xd0>
    7c8c:	e3540002 	cmp	r4, #2	; 0x2
    7c90:	11a0600d 	movne	r6, sp
    7c94:	0a000017 	beq	7cf8 <_swilseek+0xac>
    7c98:	e1a0000a 	mov	r0, sl
    7c9c:	ebffff66 	bl	7a3c <remap_handle>
    7ca0:	e3a0400a 	mov	r4, #10	; 0xa
    7ca4:	e88d0081 	stm	sp, {r0, r7}
    7ca8:	e1a00004 	mov	r0, r4
    7cac:	e1a01006 	mov	r1, r6
    7cb0:	ef123456 	svc	0x00123456
    7cb4:	e1a04000 	mov	r4, r0
    7cb8:	e2744001 	rsbs	r4, r4, #1	; 0x1
    7cbc:	33a04000 	movcc	r4, #0	; 0x0
    7cc0:	e3550014 	cmp	r5, #20	; 0x14
    7cc4:	03a03000 	moveq	r3, #0	; 0x0
    7cc8:	12043001 	andne	r3, r4, #1	; 0x1
    7ccc:	e3530000 	cmp	r3, #0	; 0x0
    7cd0:	11a03085 	lslne	r3, r5, #1
    7cd4:	12833001 	addne	r3, r3, #1	; 0x1
    7cd8:	17887103 	strne	r7, [r8, r3, lsl #2]
    7cdc:	1a000002 	bne	7cec <_swilseek+0xa0>
    7ce0:	e3540000 	cmp	r4, #0	; 0x0
    7ce4:	1a000000 	bne	7cec <_swilseek+0xa0>
    7ce8:	e3e07000 	mvn	r7, #0	; 0x0
    7cec:	e1a00007 	mov	r0, r7
    7cf0:	e28dd008 	add	sp, sp, #8	; 0x8
    7cf4:	e8bd85f0 	pop	{r4, r5, r6, r7, r8, sl, pc}
    7cf8:	e28d6008 	add	r6, sp, #8	; 0x8
    7cfc:	e5260008 	str	r0, [r6, #-8]!
    7d00:	e3a0400c 	mov	r4, #12	; 0xc
    7d04:	e1a00004 	mov	r0, r4
    7d08:	e1a01006 	mov	r1, r6
    7d0c:	ef123456 	svc	0x00123456
    7d10:	e1a04000 	mov	r4, r0
    7d14:	e0877004 	add	r7, r7, r4
    7d18:	eaffffde 	b	7c98 <_swilseek+0x4c>
    7d1c:	e3550014 	cmp	r5, #20	; 0x14
    7d20:	0afffff0 	beq	7ce8 <_swilseek+0x9c>
    7d24:	e1a03085 	lsl	r3, r5, #1
    7d28:	e2833001 	add	r3, r3, #1	; 0x1
    7d2c:	e7982103 	ldr	r2, [r8, r3, lsl #2]
    7d30:	e1a0600d 	mov	r6, sp
    7d34:	e0877002 	add	r7, r7, r2
    7d38:	eaffffd6 	b	7c98 <_swilseek+0x4c>
    7d3c:	00200874 	.word	0x00200874

00007d40 <_lseek>:
    7d40:	e52de004 	push	{lr}		; (str lr, [sp, #-4]!)
    7d44:	ebffffc0 	bl	7c4c <_swilseek>
    7d48:	e49de004 	pop	{lr}		; (ldr lr, [sp], #4)
    7d4c:	eafffe8a 	b	777c <wrap>

00007d50 <_swiread>:
    7d50:	e92d4070 	push	{r4, r5, r6, lr}
    7d54:	e24dd00c 	sub	sp, sp, #12	; 0xc
    7d58:	e1a04001 	mov	r4, r1
    7d5c:	e1a06002 	mov	r6, r2
    7d60:	ebffff35 	bl	7a3c <remap_handle>
    7d64:	e88d0051 	stm	sp, {r0, r4, r6}
    7d68:	e1a0500d 	mov	r5, sp
    7d6c:	e3a04006 	mov	r4, #6	; 0x6
    7d70:	e1a00004 	mov	r0, r4
    7d74:	e1a0100d 	mov	r1, sp
    7d78:	ef123456 	svc	0x00123456
    7d7c:	e1a04000 	mov	r4, r0
    7d80:	e1a00004 	mov	r0, r4
    7d84:	e28dd00c 	add	sp, sp, #12	; 0xc
    7d88:	e8bd8070 	pop	{r4, r5, r6, pc}

00007d8c <_read>:
    7d8c:	e92d41f0 	push	{r4, r5, r6, r7, r8, lr}
    7d90:	e59f5094 	ldr	r5, [pc, #148]	; 7e2c <_read+0xa0>
    7d94:	e1a08001 	mov	r8, r1
    7d98:	e1a06002 	mov	r6, r2
    7d9c:	e1a07000 	mov	r7, r0
    7da0:	e3a04000 	mov	r4, #0	; 0x0
    7da4:	ebffff24 	bl	7a3c <remap_handle>
    7da8:	e7953184 	ldr	r3, [r5, r4, lsl #3]
    7dac:	e1500003 	cmp	r0, r3
    7db0:	0a000002 	beq	7dc0 <_read+0x34>
    7db4:	e2844001 	add	r4, r4, #1	; 0x1
    7db8:	e3540014 	cmp	r4, #20	; 0x14
    7dbc:	1afffff9 	bne	7da8 <_read+0x1c>
    7dc0:	e1a00007 	mov	r0, r7
    7dc4:	e1a01008 	mov	r1, r8
    7dc8:	e1a02006 	mov	r2, r6
    7dcc:	ebffffdf 	bl	7d50 <_swiread>
    7dd0:	e3500000 	cmp	r0, #0	; 0x0
    7dd4:	ba000009 	blt	7e00 <_read+0x74>
    7dd8:	e3540014 	cmp	r4, #20	; 0x14
    7ddc:	0a000005 	beq	7df8 <_read+0x6c>
    7de0:	e1a02084 	lsl	r2, r4, #1
    7de4:	e2822001 	add	r2, r2, #1	; 0x1
    7de8:	e7953102 	ldr	r3, [r5, r2, lsl #2]
    7dec:	e0863003 	add	r3, r6, r3
    7df0:	e0603003 	rsb	r3, r0, r3
    7df4:	e7853102 	str	r3, [r5, r2, lsl #2]
    7df8:	e0600006 	rsb	r0, r0, r6
    7dfc:	e8bd81f0 	pop	{r4, r5, r6, r7, r8, pc}
    7e00:	eb00006e 	bl	7fc0 <__errno>
    7e04:	e3a05000 	mov	r5, #0	; 0x0
    7e08:	e1a06000 	mov	r6, r0
    7e0c:	e3a04013 	mov	r4, #19	; 0x13
    7e10:	e1a00004 	mov	r0, r4
    7e14:	e1a01005 	mov	r1, r5
    7e18:	ef123456 	svc	0x00123456
    7e1c:	e1a04000 	mov	r4, r0
    7e20:	e3e00000 	mvn	r0, #0	; 0x0
    7e24:	e5864000 	str	r4, [r6]
    7e28:	e8bd81f0 	pop	{r4, r5, r6, r7, r8, pc}
    7e2c:	00200874 	.word	0x00200874

00007e30 <_stat>:
    7e30:	e92d4030 	push	{r4, r5, lr}
    7e34:	e1a04001 	mov	r4, r1
    7e38:	e3a01000 	mov	r1, #0	; 0x0
    7e3c:	ebfffee1 	bl	79c8 <_open>
    7e40:	e2505000 	subs	r5, r0, #0	; 0x0
    7e44:	b3e00000 	mvnlt	r0, #0	; 0x0
    7e48:	b8bd8030 	poplt	{r4, r5, pc}
    7e4c:	e1a00004 	mov	r0, r4
    7e50:	e3a01000 	mov	r1, #0	; 0x0
    7e54:	e3a0203c 	mov	r2, #60	; 0x3c
    7e58:	ebfff842 	bl	5f68 <memset>
    7e5c:	e3a03b01 	mov	r3, #1024	; 0x400
    7e60:	e3a02c81 	mov	r2, #33024	; 0x8100
    7e64:	e584302c 	str	r3, [r4, #44]
    7e68:	e5842004 	str	r2, [r4, #4]
    7e6c:	e1a00005 	mov	r0, r5
    7e70:	ebffff1e 	bl	7af0 <_swiclose>
    7e74:	e3a00000 	mov	r0, #0	; 0x0
    7e78:	e8bd8030 	pop	{r4, r5, pc}

00007e7c <_fstat>:
    7e7c:	e92d4010 	push	{r4, lr}
    7e80:	e1a00001 	mov	r0, r1
    7e84:	e1a04001 	mov	r4, r1
    7e88:	e3a0203c 	mov	r2, #60	; 0x3c
    7e8c:	e3a01000 	mov	r1, #0	; 0x0
    7e90:	ebfff834 	bl	5f68 <memset>
    7e94:	e3a03b01 	mov	r3, #1024	; 0x400
    7e98:	e3a02a02 	mov	r2, #8192	; 0x2000
    7e9c:	e584302c 	str	r3, [r4, #44]
    7ea0:	e5842004 	str	r2, [r4, #4]
    7ea4:	e3a00000 	mov	r0, #0	; 0x0
    7ea8:	e8bd8010 	pop	{r4, pc}

00007eac <_write_r>:
    7eac:	e92d4030 	push	{r4, r5, lr}
    7eb0:	e59f4030 	ldr	r4, [pc, #48]	; 7ee8 <_write_r+0x3c>
    7eb4:	e1a05000 	mov	r5, r0
    7eb8:	e1a00001 	mov	r0, r1
    7ebc:	e1a01002 	mov	r1, r2
    7ec0:	e1a02003 	mov	r2, r3
    7ec4:	e3a03000 	mov	r3, #0	; 0x0
    7ec8:	e5843000 	str	r3, [r4]
    7ecc:	ebffff34 	bl	7ba4 <_write>
    7ed0:	e3700001 	cmn	r0, #1	; 0x1
    7ed4:	18bd8030 	popne	{r4, r5, pc}
    7ed8:	e5943000 	ldr	r3, [r4]
    7edc:	e3530000 	cmp	r3, #0	; 0x0
    7ee0:	15853000 	strne	r3, [r5]
    7ee4:	e8bd8030 	pop	{r4, r5, pc}
    7ee8:	00200914 	.word	0x00200914

00007eec <_calloc_r>:
    7eec:	e92d4010 	push	{r4, lr}
    7ef0:	e0010192 	mul	r1, r2, r1
    7ef4:	ebfff5b7 	bl	55d8 <_malloc_r>
    7ef8:	e2504000 	subs	r4, r0, #0	; 0x0
    7efc:	0a00001b 	beq	7f70 <_calloc_r+0x84>
    7f00:	e5143004 	ldr	r3, [r4, #-4]
    7f04:	e3c33003 	bic	r3, r3, #3	; 0x3
    7f08:	e2432004 	sub	r2, r3, #4	; 0x4
    7f0c:	e3520024 	cmp	r2, #36	; 0x24
    7f10:	8a000018 	bhi	7f78 <_calloc_r+0x8c>
    7f14:	e3520013 	cmp	r2, #19	; 0x13
    7f18:	e1a01004 	mov	r1, r4
    7f1c:	9a00000e 	bls	7f5c <_calloc_r+0x70>
    7f20:	e3a00000 	mov	r0, #0	; 0x0
    7f24:	e1a03004 	mov	r3, r4
    7f28:	e4830004 	str	r0, [r3], #4
    7f2c:	e352001b 	cmp	r2, #27	; 0x1b
    7f30:	e5840004 	str	r0, [r4, #4]
    7f34:	e2831004 	add	r1, r3, #4	; 0x4
    7f38:	9a000007 	bls	7f5c <_calloc_r+0x70>
    7f3c:	e3520024 	cmp	r2, #36	; 0x24
    7f40:	e2812004 	add	r2, r1, #4	; 0x4
    7f44:	e5830004 	str	r0, [r3, #4]
    7f48:	e5810004 	str	r0, [r1, #4]
    7f4c:	e2821004 	add	r1, r2, #4	; 0x4
    7f50:	05820004 	streq	r0, [r2, #4]
    7f54:	05810004 	streq	r0, [r1, #4]
    7f58:	02811008 	addeq	r1, r1, #8	; 0x8
    7f5c:	e3a02000 	mov	r2, #0	; 0x0
    7f60:	e1a03001 	mov	r3, r1
    7f64:	e4832004 	str	r2, [r3], #4
    7f68:	e5812004 	str	r2, [r1, #4]
    7f6c:	e5832004 	str	r2, [r3, #4]
    7f70:	e1a00004 	mov	r0, r4
    7f74:	e8bd8010 	pop	{r4, pc}
    7f78:	e3a01000 	mov	r1, #0	; 0x0
    7f7c:	ebfff7f9 	bl	5f68 <memset>
    7f80:	e1a00004 	mov	r0, r4
    7f84:	e8bd8010 	pop	{r4, pc}

00007f88 <_close_r>:
    7f88:	e92d4030 	push	{r4, r5, lr}
    7f8c:	e59f4028 	ldr	r4, [pc, #40]	; 7fbc <_close_r+0x34>
    7f90:	e3a03000 	mov	r3, #0	; 0x0
    7f94:	e1a05000 	mov	r5, r0
    7f98:	e1a00001 	mov	r0, r1
    7f9c:	e5843000 	str	r3, [r4]
    7fa0:	ebfffeec 	bl	7b58 <_close>
    7fa4:	e3700001 	cmn	r0, #1	; 0x1
    7fa8:	18bd8030 	popne	{r4, r5, pc}
    7fac:	e5943000 	ldr	r3, [r4]
    7fb0:	e3530000 	cmp	r3, #0	; 0x0
    7fb4:	15853000 	strne	r3, [r5]
    7fb8:	e8bd8030 	pop	{r4, r5, pc}
    7fbc:	00200914 	.word	0x00200914

00007fc0 <__errno>:
    7fc0:	e59f3004 	ldr	r3, [pc, #4]	; 7fcc <__errno+0xc>
    7fc4:	e5930000 	ldr	r0, [r3]
    7fc8:	e12fff1e 	bx	lr
    7fcc:	00200000 	.word	0x00200000

00007fd0 <_fclose_r>:
    7fd0:	e92d4070 	push	{r4, r5, r6, lr}
    7fd4:	e2514000 	subs	r4, r1, #0	; 0x0
    7fd8:	e1a05000 	mov	r5, r0
    7fdc:	01a06004 	moveq	r6, r4
    7fe0:	0a00002b 	beq	8094 <_fclose_r+0xc4>
    7fe4:	ebfff25b 	bl	4958 <__sfp_lock_acquire>
    7fe8:	e3550000 	cmp	r5, #0	; 0x0
    7fec:	0a000002 	beq	7ffc <_fclose_r+0x2c>
    7ff0:	e5953038 	ldr	r3, [r5, #56]
    7ff4:	e3530000 	cmp	r3, #0	; 0x0
    7ff8:	0a00002b 	beq	80ac <_fclose_r+0xdc>
    7ffc:	e1d400fc 	ldrsh	r0, [r4, #12]
    8000:	e3500000 	cmp	r0, #0	; 0x0
    8004:	0a000024 	beq	809c <_fclose_r+0xcc>
    8008:	e1a00005 	mov	r0, r5
    800c:	e1a01004 	mov	r1, r4
    8010:	ebfff192 	bl	4660 <_fflush_r>
    8014:	e594302c 	ldr	r3, [r4, #44]
    8018:	e3530000 	cmp	r3, #0	; 0x0
    801c:	e1a06000 	mov	r6, r0
    8020:	0a000005 	beq	803c <_fclose_r+0x6c>
    8024:	e1a00005 	mov	r0, r5
    8028:	e594101c 	ldr	r1, [r4, #28]
    802c:	e1a0e00f 	mov	lr, pc
    8030:	e12fff13 	bx	r3
    8034:	e3500000 	cmp	r0, #0	; 0x0
    8038:	b3e06000 	mvnlt	r6, #0	; 0x0
    803c:	e1d430bc 	ldrh	r3, [r4, #12]
    8040:	e3130080 	tst	r3, #128	; 0x80
    8044:	1a00001e 	bne	80c4 <_fclose_r+0xf4>
    8048:	e5941030 	ldr	r1, [r4, #48]
    804c:	e3510000 	cmp	r1, #0	; 0x0
    8050:	0a000005 	beq	806c <_fclose_r+0x9c>
    8054:	e2843040 	add	r3, r4, #64	; 0x40
    8058:	e1510003 	cmp	r1, r3
    805c:	11a00005 	movne	r0, r5
    8060:	1bfff2de 	blne	4be0 <_free_r>
    8064:	e3a03000 	mov	r3, #0	; 0x0
    8068:	e5843030 	str	r3, [r4, #48]
    806c:	e5941044 	ldr	r1, [r4, #68]
    8070:	e3510000 	cmp	r1, #0	; 0x0
    8074:	0a000003 	beq	8088 <_fclose_r+0xb8>
    8078:	e1a00005 	mov	r0, r5
    807c:	ebfff2d7 	bl	4be0 <_free_r>
    8080:	e3a03000 	mov	r3, #0	; 0x0
    8084:	e5843044 	str	r3, [r4, #68]
    8088:	e3a03000 	mov	r3, #0	; 0x0
    808c:	e1c430bc 	strh	r3, [r4, #12]
    8090:	ebfff231 	bl	495c <__sfp_lock_release>
    8094:	e1a00006 	mov	r0, r6
    8098:	e8bd8070 	pop	{r4, r5, r6, pc}
    809c:	e1a06000 	mov	r6, r0
    80a0:	ebfff22d 	bl	495c <__sfp_lock_release>
    80a4:	e1a00006 	mov	r0, r6
    80a8:	e8bd8070 	pop	{r4, r5, r6, pc}
    80ac:	e1a00005 	mov	r0, r5
    80b0:	ebfff1e1 	bl	483c <__sinit>
    80b4:	e1d400fc 	ldrsh	r0, [r4, #12]
    80b8:	e3500000 	cmp	r0, #0	; 0x0
    80bc:	1affffd1 	bne	8008 <_fclose_r+0x38>
    80c0:	eafffff5 	b	809c <_fclose_r+0xcc>
    80c4:	e1a00005 	mov	r0, r5
    80c8:	e5941010 	ldr	r1, [r4, #16]
    80cc:	ebfff2c3 	bl	4be0 <_free_r>
    80d0:	eaffffdc 	b	8048 <_fclose_r+0x78>

000080d4 <fclose>:
    80d4:	e59f3008 	ldr	r3, [pc, #8]	; 80e4 <fclose+0x10>
    80d8:	e1a01000 	mov	r1, r0
    80dc:	e5930000 	ldr	r0, [r3]
    80e0:	eaffffba 	b	7fd0 <_fclose_r>
    80e4:	00200000 	.word	0x00200000

000080e8 <_fstat_r>:
    80e8:	e92d4030 	push	{r4, r5, lr}
    80ec:	e59f402c 	ldr	r4, [pc, #44]	; 8120 <_fstat_r+0x38>
    80f0:	e3a03000 	mov	r3, #0	; 0x0
    80f4:	e1a05000 	mov	r5, r0
    80f8:	e1a00001 	mov	r0, r1
    80fc:	e1a01002 	mov	r1, r2
    8100:	e5843000 	str	r3, [r4]
    8104:	ebffff5c 	bl	7e7c <_fstat>
    8108:	e3700001 	cmn	r0, #1	; 0x1
    810c:	18bd8030 	popne	{r4, r5, pc}
    8110:	e5943000 	ldr	r3, [r4]
    8114:	e3530000 	cmp	r3, #0	; 0x0
    8118:	15853000 	strne	r3, [r5]
    811c:	e8bd8030 	pop	{r4, r5, pc}
    8120:	00200914 	.word	0x00200914

00008124 <_lseek_r>:
    8124:	e92d4030 	push	{r4, r5, lr}
    8128:	e59f4030 	ldr	r4, [pc, #48]	; 8160 <_lseek_r+0x3c>
    812c:	e1a05000 	mov	r5, r0
    8130:	e1a00001 	mov	r0, r1
    8134:	e1a01002 	mov	r1, r2
    8138:	e1a02003 	mov	r2, r3
    813c:	e3a03000 	mov	r3, #0	; 0x0
    8140:	e5843000 	str	r3, [r4]
    8144:	ebfffefd 	bl	7d40 <_lseek>
    8148:	e3700001 	cmn	r0, #1	; 0x1
    814c:	18bd8030 	popne	{r4, r5, pc}
    8150:	e5943000 	ldr	r3, [r4]
    8154:	e3530000 	cmp	r3, #0	; 0x0
    8158:	15853000 	strne	r3, [r5]
    815c:	e8bd8030 	pop	{r4, r5, pc}
    8160:	00200914 	.word	0x00200914

00008164 <_read_r>:
    8164:	e92d4030 	push	{r4, r5, lr}
    8168:	e59f4030 	ldr	r4, [pc, #48]	; 81a0 <_read_r+0x3c>
    816c:	e1a05000 	mov	r5, r0
    8170:	e1a00001 	mov	r0, r1
    8174:	e1a01002 	mov	r1, r2
    8178:	e1a02003 	mov	r2, r3
    817c:	e3a03000 	mov	r3, #0	; 0x0
    8180:	e5843000 	str	r3, [r4]
    8184:	ebffff00 	bl	7d8c <_read>
    8188:	e3700001 	cmn	r0, #1	; 0x1
    818c:	18bd8030 	popne	{r4, r5, pc}
    8190:	e5943000 	ldr	r3, [r4]
    8194:	e3530000 	cmp	r3, #0	; 0x0
    8198:	15853000 	strne	r3, [r5]
    819c:	e8bd8030 	pop	{r4, r5, pc}
    81a0:	00200914 	.word	0x00200914

000081a4 <_wrapup_reent>:
    81a4:	e92d40f0 	push	{r4, r5, r6, r7, lr}
    81a8:	e2507000 	subs	r7, r0, #0	; 0x0
    81ac:	059f3060 	ldreq	r3, [pc, #96]	; 8214 <_wrapup_reent+0x70>
    81b0:	05937000 	ldreq	r7, [r3]
    81b4:	e5976148 	ldr	r6, [r7, #328]
    81b8:	e3560000 	cmp	r6, #0	; 0x0
    81bc:	0a00000d 	beq	81f8 <_wrapup_reent+0x54>
    81c0:	e5963004 	ldr	r3, [r6, #4]
    81c4:	e2534001 	subs	r4, r3, #1	; 0x1
    81c8:	4a000007 	bmi	81ec <_wrapup_reent+0x48>
    81cc:	e2833002 	add	r3, r3, #2	; 0x2
    81d0:	e1a03103 	lsl	r3, r3, #2
    81d4:	e0865003 	add	r5, r6, r3
    81d8:	e5353004 	ldr	r3, [r5, #-4]!
    81dc:	e1a0e00f 	mov	lr, pc
    81e0:	e12fff13 	bx	r3
    81e4:	e2544001 	subs	r4, r4, #1	; 0x1
    81e8:	5afffffa 	bpl	81d8 <_wrapup_reent+0x34>
    81ec:	e5966000 	ldr	r6, [r6]
    81f0:	e3560000 	cmp	r6, #0	; 0x0
    81f4:	1afffff1 	bne	81c0 <_wrapup_reent+0x1c>
    81f8:	e597303c 	ldr	r3, [r7, #60]
    81fc:	e3530000 	cmp	r3, #0	; 0x0
    8200:	08bd80f0 	popeq	{r4, r5, r6, r7, pc}
    8204:	e1a00007 	mov	r0, r7
    8208:	e1a0e00f 	mov	lr, pc
    820c:	e12fff13 	bx	r3
    8210:	e8bd80f0 	pop	{r4, r5, r6, r7, pc}
    8214:	00200000 	.word	0x00200000

00008218 <cleanup_glue>:
    8218:	e92d4030 	push	{r4, r5, lr}
    821c:	e1a05001 	mov	r5, r1
    8220:	e5911000 	ldr	r1, [r1]
    8224:	e3510000 	cmp	r1, #0	; 0x0
    8228:	e1a04000 	mov	r4, r0
    822c:	1bfffff9 	blne	8218 <cleanup_glue>
    8230:	e1a00004 	mov	r0, r4
    8234:	e1a01005 	mov	r1, r5
    8238:	e8bd4030 	pop	{r4, r5, lr}
    823c:	eafff267 	b	4be0 <_free_r>

00008240 <_reclaim_reent>:
    8240:	e59f30e0 	ldr	r3, [pc, #224]	; 8328 <_reclaim_reent+0xe8>
    8244:	e5932000 	ldr	r2, [r3]
    8248:	e1500002 	cmp	r0, r2
    824c:	e92d4070 	push	{r4, r5, r6, lr}
    8250:	e1a05000 	mov	r5, r0
    8254:	08bd8070 	popeq	{r4, r5, r6, pc}
    8258:	e590304c 	ldr	r3, [r0, #76]
    825c:	e3530000 	cmp	r3, #0	; 0x0
    8260:	0a000010 	beq	82a8 <_reclaim_reent+0x68>
    8264:	e3a06000 	mov	r6, #0	; 0x0
    8268:	e7931006 	ldr	r1, [r3, r6]
    826c:	e3510000 	cmp	r1, #0	; 0x0
    8270:	0a000006 	beq	8290 <_reclaim_reent+0x50>
    8274:	e5914000 	ldr	r4, [r1]
    8278:	e1a00005 	mov	r0, r5
    827c:	ebfff257 	bl	4be0 <_free_r>
    8280:	e3540000 	cmp	r4, #0	; 0x0
    8284:	e1a01004 	mov	r1, r4
    8288:	1afffff9 	bne	8274 <_reclaim_reent+0x34>
    828c:	e595304c 	ldr	r3, [r5, #76]
    8290:	e2866004 	add	r6, r6, #4	; 0x4
    8294:	e356003c 	cmp	r6, #60	; 0x3c
    8298:	1afffff2 	bne	8268 <_reclaim_reent+0x28>
    829c:	e1a01003 	mov	r1, r3
    82a0:	e1a00005 	mov	r0, r5
    82a4:	ebfff24d 	bl	4be0 <_free_r>
    82a8:	e5951040 	ldr	r1, [r5, #64]
    82ac:	e3510000 	cmp	r1, #0	; 0x0
    82b0:	11a00005 	movne	r0, r5
    82b4:	1bfff249 	blne	4be0 <_free_r>
    82b8:	e5951148 	ldr	r1, [r5, #328]
    82bc:	e3510000 	cmp	r1, #0	; 0x0
    82c0:	0a000008 	beq	82e8 <_reclaim_reent+0xa8>
    82c4:	e2856f53 	add	r6, r5, #332	; 0x14c
    82c8:	e1510006 	cmp	r1, r6
    82cc:	0a000005 	beq	82e8 <_reclaim_reent+0xa8>
    82d0:	e5914000 	ldr	r4, [r1]
    82d4:	e1a00005 	mov	r0, r5
    82d8:	ebfff240 	bl	4be0 <_free_r>
    82dc:	e1560004 	cmp	r6, r4
    82e0:	e1a01004 	mov	r1, r4
    82e4:	1afffff9 	bne	82d0 <_reclaim_reent+0x90>
    82e8:	e5951054 	ldr	r1, [r5, #84]
    82ec:	e3510000 	cmp	r1, #0	; 0x0
    82f0:	11a00005 	movne	r0, r5
    82f4:	1bfff239 	blne	4be0 <_free_r>
    82f8:	e5953038 	ldr	r3, [r5, #56]
    82fc:	e3530000 	cmp	r3, #0	; 0x0
    8300:	08bd8070 	popeq	{r4, r5, r6, pc}
    8304:	e1a00005 	mov	r0, r5
    8308:	e1a0e00f 	mov	lr, pc
    830c:	e595f03c 	ldr	pc, [r5, #60]
    8310:	e59512e0 	ldr	r1, [r5, #736]
    8314:	e3510000 	cmp	r1, #0	; 0x0
    8318:	08bd8070 	popeq	{r4, r5, r6, pc}
    831c:	e1a00005 	mov	r0, r5
    8320:	e8bd4070 	pop	{r4, r5, r6, lr}
    8324:	eaffffbb 	b	8218 <cleanup_glue>
    8328:	00200000 	.word	0x00200000

0000832c <__aeabi_uidiv>:
    832c:	e2512001 	subs	r2, r1, #1	; 0x1
    8330:	012fff1e 	bxeq	lr
    8334:	3a000036 	bcc	8414 <__aeabi_uidiv+0xe8>
    8338:	e1500001 	cmp	r0, r1
    833c:	9a000022 	bls	83cc <__aeabi_uidiv+0xa0>
    8340:	e1110002 	tst	r1, r2
    8344:	0a000023 	beq	83d8 <__aeabi_uidiv+0xac>
    8348:	e311020e 	tst	r1, #-536870912	; 0xe0000000
    834c:	01a01181 	lsleq	r1, r1, #3
    8350:	03a03008 	moveq	r3, #8	; 0x8
    8354:	13a03001 	movne	r3, #1	; 0x1
    8358:	e3510201 	cmp	r1, #268435456	; 0x10000000
    835c:	31510000 	cmpcc	r1, r0
    8360:	31a01201 	lslcc	r1, r1, #4
    8364:	31a03203 	lslcc	r3, r3, #4
    8368:	3afffffa 	bcc	8358 <__aeabi_uidiv+0x2c>
    836c:	e3510102 	cmp	r1, #-2147483648	; 0x80000000
    8370:	31510000 	cmpcc	r1, r0
    8374:	31a01081 	lslcc	r1, r1, #1
    8378:	31a03083 	lslcc	r3, r3, #1
    837c:	3afffffa 	bcc	836c <__aeabi_uidiv+0x40>
    8380:	e3a02000 	mov	r2, #0	; 0x0
    8384:	e1500001 	cmp	r0, r1
    8388:	20400001 	subcs	r0, r0, r1
    838c:	21822003 	orrcs	r2, r2, r3
    8390:	e15000a1 	cmp	r0, r1, lsr #1
    8394:	204000a1 	subcs	r0, r0, r1, lsr #1
    8398:	218220a3 	orrcs	r2, r2, r3, lsr #1
    839c:	e1500121 	cmp	r0, r1, lsr #2
    83a0:	20400121 	subcs	r0, r0, r1, lsr #2
    83a4:	21822123 	orrcs	r2, r2, r3, lsr #2
    83a8:	e15001a1 	cmp	r0, r1, lsr #3
    83ac:	204001a1 	subcs	r0, r0, r1, lsr #3
    83b0:	218221a3 	orrcs	r2, r2, r3, lsr #3
    83b4:	e3500000 	cmp	r0, #0	; 0x0
    83b8:	11b03223 	lsrsne	r3, r3, #4
    83bc:	11a01221 	lsrne	r1, r1, #4
    83c0:	1affffef 	bne	8384 <__aeabi_uidiv+0x58>
    83c4:	e1a00002 	mov	r0, r2
    83c8:	e12fff1e 	bx	lr
    83cc:	03a00001 	moveq	r0, #1	; 0x1
    83d0:	13a00000 	movne	r0, #0	; 0x0
    83d4:	e12fff1e 	bx	lr
    83d8:	e3510801 	cmp	r1, #65536	; 0x10000
    83dc:	21a01821 	lsrcs	r1, r1, #16
    83e0:	23a02010 	movcs	r2, #16	; 0x10
    83e4:	33a02000 	movcc	r2, #0	; 0x0
    83e8:	e3510c01 	cmp	r1, #256	; 0x100
    83ec:	21a01421 	lsrcs	r1, r1, #8
    83f0:	22822008 	addcs	r2, r2, #8	; 0x8
    83f4:	e3510010 	cmp	r1, #16	; 0x10
    83f8:	21a01221 	lsrcs	r1, r1, #4
    83fc:	22822004 	addcs	r2, r2, #4	; 0x4
    8400:	e3510004 	cmp	r1, #4	; 0x4
    8404:	82822003 	addhi	r2, r2, #3	; 0x3
    8408:	908220a1 	addls	r2, r2, r1, lsr #1
    840c:	e1a00230 	lsr	r0, r0, r2
    8410:	e12fff1e 	bx	lr
    8414:	e52de008 	str	lr, [sp, #-8]!
    8418:	eb000007 	bl	843c <__aeabi_idiv0>
    841c:	e3a00000 	mov	r0, #0	; 0x0
    8420:	e49df008 	ldr	pc, [sp], #8

00008424 <__aeabi_uidivmod>:
    8424:	e92d4003 	push	{r0, r1, lr}
    8428:	ebffffbf 	bl	832c <__aeabi_uidiv>
    842c:	e8bd4006 	pop	{r1, r2, lr}
    8430:	e0030092 	mul	r3, r2, r0
    8434:	e0411003 	sub	r1, r1, r3
    8438:	e12fff1e 	bx	lr

0000843c <__aeabi_idiv0>:
    843c:	e12fff1e 	bx	lr

00008440 <__aeabi_drsub>:
    8440:	e2200102 	eor	r0, r0, #-2147483648	; 0x80000000
    8444:	ea000000 	b	844c <__adddf3>

00008448 <__aeabi_dsub>:
    8448:	e2222102 	eor	r2, r2, #-2147483648	; 0x80000000

0000844c <__adddf3>:
    844c:	e92d4030 	push	{r4, r5, lr}
    8450:	e1a04080 	lsl	r4, r0, #1
    8454:	e1a05082 	lsl	r5, r2, #1
    8458:	e1340005 	teq	r4, r5
    845c:	01310003 	teqeq	r1, r3
    8460:	1194c001 	orrsne	ip, r4, r1
    8464:	1195c003 	orrsne	ip, r5, r3
    8468:	11f0cac4 	mvnsne	ip, r4, asr #21
    846c:	11f0cac5 	mvnsne	ip, r5, asr #21
    8470:	0a000086 	beq	8690 <__adddf3+0x244>
    8474:	e1a04aa4 	lsr	r4, r4, #21
    8478:	e0745aa5 	rsbs	r5, r4, r5, lsr #21
    847c:	b2655000 	rsblt	r5, r5, #0	; 0x0
    8480:	da000006 	ble	84a0 <__adddf3+0x54>
    8484:	e0844005 	add	r4, r4, r5
    8488:	e0213003 	eor	r3, r1, r3
    848c:	e0202002 	eor	r2, r0, r2
    8490:	e0231001 	eor	r1, r3, r1
    8494:	e0220000 	eor	r0, r2, r0
    8498:	e0213003 	eor	r3, r1, r3
    849c:	e0202002 	eor	r2, r0, r2
    84a0:	e3550036 	cmp	r5, #54	; 0x36
    84a4:	88bd8030 	pophi	{r4, r5, pc}
    84a8:	e3100102 	tst	r0, #-2147483648	; 0x80000000
    84ac:	e1a00600 	lsl	r0, r0, #12
    84b0:	e3a0c601 	mov	ip, #1048576	; 0x100000
    84b4:	e18c0620 	orr	r0, ip, r0, lsr #12
    84b8:	0a000001 	beq	84c4 <__adddf3+0x78>
    84bc:	e2711000 	rsbs	r1, r1, #0	; 0x0
    84c0:	e2e00000 	rsc	r0, r0, #0	; 0x0
    84c4:	e3120102 	tst	r2, #-2147483648	; 0x80000000
    84c8:	e1a02602 	lsl	r2, r2, #12
    84cc:	e18c2622 	orr	r2, ip, r2, lsr #12
    84d0:	0a000001 	beq	84dc <__adddf3+0x90>
    84d4:	e2733000 	rsbs	r3, r3, #0	; 0x0
    84d8:	e2e22000 	rsc	r2, r2, #0	; 0x0
    84dc:	e1340005 	teq	r4, r5
    84e0:	0a000064 	beq	8678 <__adddf3+0x22c>
    84e4:	e2444001 	sub	r4, r4, #1	; 0x1
    84e8:	e275e020 	rsbs	lr, r5, #32	; 0x20
    84ec:	ba000005 	blt	8508 <__adddf3+0xbc>
    84f0:	e1a0ce13 	lsl	ip, r3, lr
    84f4:	e0911533 	adds	r1, r1, r3, lsr r5
    84f8:	e2a00000 	adc	r0, r0, #0	; 0x0
    84fc:	e0911e12 	adds	r1, r1, r2, lsl lr
    8500:	e0b00552 	adcs	r0, r0, r2, asr r5
    8504:	ea000006 	b	8524 <__adddf3+0xd8>
    8508:	e2455020 	sub	r5, r5, #32	; 0x20
    850c:	e28ee020 	add	lr, lr, #32	; 0x20
    8510:	e3530001 	cmp	r3, #1	; 0x1
    8514:	e1a0ce12 	lsl	ip, r2, lr
    8518:	238cc002 	orrcs	ip, ip, #2	; 0x2
    851c:	e0911552 	adds	r1, r1, r2, asr r5
    8520:	e0b00fc2 	adcs	r0, r0, r2, asr #31
    8524:	e2005102 	and	r5, r0, #-2147483648	; 0x80000000
    8528:	5a000002 	bpl	8538 <__adddf3+0xec>
    852c:	e27cc000 	rsbs	ip, ip, #0	; 0x0
    8530:	e2f11000 	rscs	r1, r1, #0	; 0x0
    8534:	e2e00000 	rsc	r0, r0, #0	; 0x0
    8538:	e3500601 	cmp	r0, #1048576	; 0x100000
    853c:	3a00000e 	bcc	857c <__adddf3+0x130>
    8540:	e3500602 	cmp	r0, #2097152	; 0x200000
    8544:	3a000006 	bcc	8564 <__adddf3+0x118>
    8548:	e1b000a0 	lsrs	r0, r0, #1
    854c:	e1b01061 	rrxs	r1, r1
    8550:	e1a0c06c 	rrx	ip, ip
    8554:	e2844001 	add	r4, r4, #1	; 0x1
    8558:	e1a02a84 	lsl	r2, r4, #21
    855c:	e3720501 	cmn	r2, #4194304	; 0x400000
    8560:	2a000062 	bcs	86f0 <__adddf3+0x2a4>
    8564:	e35c0102 	cmp	ip, #-2147483648	; 0x80000000
    8568:	01b0c0a1 	lsrseq	ip, r1, #1
    856c:	e2b11000 	adcs	r1, r1, #0	; 0x0
    8570:	e0a00a04 	adc	r0, r0, r4, lsl #20
    8574:	e1800005 	orr	r0, r0, r5
    8578:	e8bd8030 	pop	{r4, r5, pc}
    857c:	e1b0c08c 	lsls	ip, ip, #1
    8580:	e0b11001 	adcs	r1, r1, r1
    8584:	e0a00000 	adc	r0, r0, r0
    8588:	e3100601 	tst	r0, #1048576	; 0x100000
    858c:	e2444001 	sub	r4, r4, #1	; 0x1
    8590:	1afffff3 	bne	8564 <__adddf3+0x118>
    8594:	e3300000 	teq	r0, #0	; 0x0
    8598:	13a03014 	movne	r3, #20	; 0x14
    859c:	03a03034 	moveq	r3, #52	; 0x34
    85a0:	01a00001 	moveq	r0, r1
    85a4:	03a01000 	moveq	r1, #0	; 0x0
    85a8:	e1a02000 	mov	r2, r0
    85ac:	e3520801 	cmp	r2, #65536	; 0x10000
    85b0:	21a02822 	lsrcs	r2, r2, #16
    85b4:	22433010 	subcs	r3, r3, #16	; 0x10
    85b8:	e3520c01 	cmp	r2, #256	; 0x100
    85bc:	21a02422 	lsrcs	r2, r2, #8
    85c0:	22433008 	subcs	r3, r3, #8	; 0x8
    85c4:	e3520010 	cmp	r2, #16	; 0x10
    85c8:	21a02222 	lsrcs	r2, r2, #4
    85cc:	22433004 	subcs	r3, r3, #4	; 0x4
    85d0:	e3520004 	cmp	r2, #4	; 0x4
    85d4:	22433002 	subcs	r3, r3, #2	; 0x2
    85d8:	304330a2 	subcc	r3, r3, r2, lsr #1
    85dc:	e04331a2 	sub	r3, r3, r2, lsr #3
    85e0:	e2532020 	subs	r2, r3, #32	; 0x20
    85e4:	aa000007 	bge	8608 <__adddf3+0x1bc>
    85e8:	e292200c 	adds	r2, r2, #12	; 0xc
    85ec:	da000004 	ble	8604 <__adddf3+0x1b8>
    85f0:	e282c014 	add	ip, r2, #20	; 0x14
    85f4:	e262200c 	rsb	r2, r2, #12	; 0xc
    85f8:	e1a01c10 	lsl	r1, r0, ip
    85fc:	e1a00230 	lsr	r0, r0, r2
    8600:	ea000004 	b	8618 <__adddf3+0x1cc>
    8604:	e2822014 	add	r2, r2, #20	; 0x14
    8608:	d262c020 	rsble	ip, r2, #32	; 0x20
    860c:	e1a00210 	lsl	r0, r0, r2
    8610:	d1800c31 	orrle	r0, r0, r1, lsr ip
    8614:	d1a01211 	lslle	r1, r1, r2
    8618:	e0544003 	subs	r4, r4, r3
    861c:	a0800a04 	addge	r0, r0, r4, lsl #20
    8620:	a1800005 	orrge	r0, r0, r5
    8624:	a8bd8030 	popge	{r4, r5, pc}
    8628:	e1e04004 	mvn	r4, r4
    862c:	e254401f 	subs	r4, r4, #31	; 0x1f
    8630:	aa00000d 	bge	866c <__adddf3+0x220>
    8634:	e294400c 	adds	r4, r4, #12	; 0xc
    8638:	ca000005 	bgt	8654 <__adddf3+0x208>
    863c:	e2844014 	add	r4, r4, #20	; 0x14
    8640:	e2642020 	rsb	r2, r4, #32	; 0x20
    8644:	e1a01431 	lsr	r1, r1, r4
    8648:	e1811210 	orr	r1, r1, r0, lsl r2
    864c:	e1850430 	orr	r0, r5, r0, lsr r4
    8650:	e8bd8030 	pop	{r4, r5, pc}
    8654:	e264400c 	rsb	r4, r4, #12	; 0xc
    8658:	e2642020 	rsb	r2, r4, #32	; 0x20
    865c:	e1a01231 	lsr	r1, r1, r2
    8660:	e1811410 	orr	r1, r1, r0, lsl r4
    8664:	e1a00005 	mov	r0, r5
    8668:	e8bd8030 	pop	{r4, r5, pc}
    866c:	e1a01430 	lsr	r1, r0, r4
    8670:	e1a00005 	mov	r0, r5
    8674:	e8bd8030 	pop	{r4, r5, pc}
    8678:	e3340000 	teq	r4, #0	; 0x0
    867c:	e2222601 	eor	r2, r2, #1048576	; 0x100000
    8680:	02200601 	eoreq	r0, r0, #1048576	; 0x100000
    8684:	02844001 	addeq	r4, r4, #1	; 0x1
    8688:	12455001 	subne	r5, r5, #1	; 0x1
    868c:	eaffff94 	b	84e4 <__adddf3+0x98>
    8690:	e1f0cac4 	mvns	ip, r4, asr #21
    8694:	11f0cac5 	mvnsne	ip, r5, asr #21
    8698:	0a000018 	beq	8700 <__adddf3+0x2b4>
    869c:	e1340005 	teq	r4, r5
    86a0:	01310003 	teqeq	r1, r3
    86a4:	0a000003 	beq	86b8 <__adddf3+0x26c>
    86a8:	e194c001 	orrs	ip, r4, r1
    86ac:	01a00002 	moveq	r0, r2
    86b0:	01a01003 	moveq	r1, r3
    86b4:	e8bd8030 	pop	{r4, r5, pc}
    86b8:	e1300002 	teq	r0, r2
    86bc:	13a00000 	movne	r0, #0	; 0x0
    86c0:	13a01000 	movne	r1, #0	; 0x0
    86c4:	18bd8030 	popne	{r4, r5, pc}
    86c8:	e1b0caa4 	lsrs	ip, r4, #21
    86cc:	1a000003 	bne	86e0 <__adddf3+0x294>
    86d0:	e1b01081 	lsls	r1, r1, #1
    86d4:	e0b00000 	adcs	r0, r0, r0
    86d8:	23800102 	orrcs	r0, r0, #-2147483648	; 0x80000000
    86dc:	e8bd8030 	pop	{r4, r5, pc}
    86e0:	e2944501 	adds	r4, r4, #4194304	; 0x400000
    86e4:	32800601 	addcc	r0, r0, #1048576	; 0x100000
    86e8:	38bd8030 	popcc	{r4, r5, pc}
    86ec:	e2005102 	and	r5, r0, #-2147483648	; 0x80000000
    86f0:	e385047f 	orr	r0, r5, #2130706432	; 0x7f000000
    86f4:	e380060f 	orr	r0, r0, #15728640	; 0xf00000
    86f8:	e3a01000 	mov	r1, #0	; 0x0
    86fc:	e8bd8030 	pop	{r4, r5, pc}
    8700:	e1f0cac4 	mvns	ip, r4, asr #21
    8704:	11a00002 	movne	r0, r2
    8708:	11a01003 	movne	r1, r3
    870c:	01f0cac5 	mvnseq	ip, r5, asr #21
    8710:	11a02000 	movne	r2, r0
    8714:	11a03001 	movne	r3, r1
    8718:	e1914600 	orrs	r4, r1, r0, lsl #12
    871c:	01935602 	orrseq	r5, r3, r2, lsl #12
    8720:	01300002 	teqeq	r0, r2
    8724:	13800702 	orrne	r0, r0, #524288	; 0x80000
    8728:	e8bd8030 	pop	{r4, r5, pc}

0000872c <__aeabi_ui2d>:
    872c:	e3300000 	teq	r0, #0	; 0x0
    8730:	03a01000 	moveq	r1, #0	; 0x0
    8734:	012fff1e 	bxeq	lr
    8738:	e92d4030 	push	{r4, r5, lr}
    873c:	e3a04b01 	mov	r4, #1024	; 0x400
    8740:	e2844032 	add	r4, r4, #50	; 0x32
    8744:	e3a05000 	mov	r5, #0	; 0x0
    8748:	e1a01000 	mov	r1, r0
    874c:	e3a00000 	mov	r0, #0	; 0x0
    8750:	eaffff8f 	b	8594 <__adddf3+0x148>

00008754 <__aeabi_i2d>:
    8754:	e3300000 	teq	r0, #0	; 0x0
    8758:	03a01000 	moveq	r1, #0	; 0x0
    875c:	012fff1e 	bxeq	lr
    8760:	e92d4030 	push	{r4, r5, lr}
    8764:	e3a04b01 	mov	r4, #1024	; 0x400
    8768:	e2844032 	add	r4, r4, #50	; 0x32
    876c:	e2105102 	ands	r5, r0, #-2147483648	; 0x80000000
    8770:	42600000 	rsbmi	r0, r0, #0	; 0x0
    8774:	e1a01000 	mov	r1, r0
    8778:	e3a00000 	mov	r0, #0	; 0x0
    877c:	eaffff84 	b	8594 <__adddf3+0x148>

00008780 <__aeabi_f2d>:
    8780:	e1b02080 	lsls	r2, r0, #1
    8784:	e1a001c2 	asr	r0, r2, #3
    8788:	e1a00060 	rrx	r0, r0
    878c:	e1a01e02 	lsl	r1, r2, #28
    8790:	121234ff 	andsne	r3, r2, #-16777216	; 0xff000000
    8794:	133304ff 	teqne	r3, #-16777216	; 0xff000000
    8798:	1220030e 	eorne	r0, r0, #939524096	; 0x38000000
    879c:	112fff1e 	bxne	lr
    87a0:	e3320000 	teq	r2, #0	; 0x0
    87a4:	133304ff 	teqne	r3, #-16777216	; 0xff000000
    87a8:	012fff1e 	bxeq	lr
    87ac:	e92d4030 	push	{r4, r5, lr}
    87b0:	e3a04d0e 	mov	r4, #896	; 0x380
    87b4:	e2005102 	and	r5, r0, #-2147483648	; 0x80000000
    87b8:	e3c00102 	bic	r0, r0, #-2147483648	; 0x80000000
    87bc:	eaffff74 	b	8594 <__adddf3+0x148>

000087c0 <__aeabi_ul2d>:
    87c0:	e1902001 	orrs	r2, r0, r1
    87c4:	012fff1e 	bxeq	lr
    87c8:	e92d4030 	push	{r4, r5, lr}
    87cc:	e3a05000 	mov	r5, #0	; 0x0
    87d0:	ea000006 	b	87f0 <__aeabi_l2d+0x1c>

000087d4 <__aeabi_l2d>:
    87d4:	e1902001 	orrs	r2, r0, r1
    87d8:	012fff1e 	bxeq	lr
    87dc:	e92d4030 	push	{r4, r5, lr}
    87e0:	e2115102 	ands	r5, r1, #-2147483648	; 0x80000000
    87e4:	5a000001 	bpl	87f0 <__aeabi_l2d+0x1c>
    87e8:	e2700000 	rsbs	r0, r0, #0	; 0x0
    87ec:	e2e11000 	rsc	r1, r1, #0	; 0x0
    87f0:	e3a04b01 	mov	r4, #1024	; 0x400
    87f4:	e2844032 	add	r4, r4, #50	; 0x32
    87f8:	e1a0c000 	mov	ip, r0
    87fc:	e1a00001 	mov	r0, r1
    8800:	e1a0100c 	mov	r1, ip
    8804:	e1b0cb20 	lsrs	ip, r0, #22
    8808:	0affff4a 	beq	8538 <__adddf3+0xec>
    880c:	e3a02003 	mov	r2, #3	; 0x3
    8810:	e1b0c1ac 	lsrs	ip, ip, #3
    8814:	12822003 	addne	r2, r2, #3	; 0x3
    8818:	e1b0c1ac 	lsrs	ip, ip, #3
    881c:	12822003 	addne	r2, r2, #3	; 0x3
    8820:	e08221ac 	add	r2, r2, ip, lsr #3
    8824:	e2623020 	rsb	r3, r2, #32	; 0x20
    8828:	e1a0c311 	lsl	ip, r1, r3
    882c:	e1a01231 	lsr	r1, r1, r2
    8830:	e1811310 	orr	r1, r1, r0, lsl r3
    8834:	e1a00230 	lsr	r0, r0, r2
    8838:	e0844002 	add	r4, r4, r2
    883c:	eaffff3d 	b	8538 <__adddf3+0xec>

00008840 <__aeabi_dmul>:
    8840:	e92d4070 	push	{r4, r5, r6, lr}
    8844:	e3a0c0ff 	mov	ip, #255	; 0xff
    8848:	e38ccc07 	orr	ip, ip, #1792	; 0x700
    884c:	e01c4a20 	ands	r4, ip, r0, lsr #20
    8850:	101c5a22 	andsne	r5, ip, r2, lsr #20
    8854:	1134000c 	teqne	r4, ip
    8858:	1135000c 	teqne	r5, ip
    885c:	0b00006f 	bleq	8a20 <__aeabi_dmul+0x1e0>
    8860:	e0844005 	add	r4, r4, r5
    8864:	e0206002 	eor	r6, r0, r2
    8868:	e1c00a8c 	bic	r0, r0, ip, lsl #21
    886c:	e1c22a8c 	bic	r2, r2, ip, lsl #21
    8870:	e1915600 	orrs	r5, r1, r0, lsl #12
    8874:	11935602 	orrsne	r5, r3, r2, lsl #12
    8878:	e3800601 	orr	r0, r0, #1048576	; 0x100000
    887c:	e3822601 	orr	r2, r2, #1048576	; 0x100000
    8880:	0a00001c 	beq	88f8 <__aeabi_dmul+0xb8>
    8884:	e08ec391 	umull	ip, lr, r1, r3
    8888:	e3a05000 	mov	r5, #0	; 0x0
    888c:	e0a5e390 	umlal	lr, r5, r0, r3
    8890:	e2063102 	and	r3, r6, #-2147483648	; 0x80000000
    8894:	e0a5e291 	umlal	lr, r5, r1, r2
    8898:	e3a06000 	mov	r6, #0	; 0x0
    889c:	e0a65290 	umlal	r5, r6, r0, r2
    88a0:	e33c0000 	teq	ip, #0	; 0x0
    88a4:	138ee001 	orrne	lr, lr, #1	; 0x1
    88a8:	e24440ff 	sub	r4, r4, #255	; 0xff
    88ac:	e3560c02 	cmp	r6, #512	; 0x200
    88b0:	e2c44c03 	sbc	r4, r4, #768	; 0x300
    88b4:	2a000002 	bcs	88c4 <__aeabi_dmul+0x84>
    88b8:	e1b0e08e 	lsls	lr, lr, #1
    88bc:	e0b55005 	adcs	r5, r5, r5
    88c0:	e0a66006 	adc	r6, r6, r6
    88c4:	e1830586 	orr	r0, r3, r6, lsl #11
    88c8:	e1800aa5 	orr	r0, r0, r5, lsr #21
    88cc:	e1a01585 	lsl	r1, r5, #11
    88d0:	e1811aae 	orr	r1, r1, lr, lsr #21
    88d4:	e1a0e58e 	lsl	lr, lr, #11
    88d8:	e254c0fd 	subs	ip, r4, #253	; 0xfd
    88dc:	835c0c07 	cmphi	ip, #1792	; 0x700
    88e0:	8a00000f 	bhi	8924 <__aeabi_dmul+0xe4>
    88e4:	e35e0102 	cmp	lr, #-2147483648	; 0x80000000
    88e8:	01b0e0a1 	lsrseq	lr, r1, #1
    88ec:	e2b11000 	adcs	r1, r1, #0	; 0x0
    88f0:	e0a00a04 	adc	r0, r0, r4, lsl #20
    88f4:	e8bd8070 	pop	{r4, r5, r6, pc}
    88f8:	e2066102 	and	r6, r6, #-2147483648	; 0x80000000
    88fc:	e1860000 	orr	r0, r6, r0
    8900:	e1811003 	orr	r1, r1, r3
    8904:	e0200002 	eor	r0, r0, r2
    8908:	e05440ac 	subs	r4, r4, ip, lsr #1
    890c:	c074500c 	rsbsgt	r5, r4, ip
    8910:	c1800a04 	orrgt	r0, r0, r4, lsl #20
    8914:	c8bd8070 	popgt	{r4, r5, r6, pc}
    8918:	e3800601 	orr	r0, r0, #1048576	; 0x100000
    891c:	e3a0e000 	mov	lr, #0	; 0x0
    8920:	e2544001 	subs	r4, r4, #1	; 0x1
    8924:	ca000058 	bgt	8a8c <__aeabi_dmul+0x24c>
    8928:	e3740036 	cmn	r4, #54	; 0x36
    892c:	d3a01000 	movle	r1, #0	; 0x0
    8930:	d2000102 	andle	r0, r0, #-2147483648	; 0x80000000
    8934:	d8bd8070 	pople	{r4, r5, r6, pc}
    8938:	e2644000 	rsb	r4, r4, #0	; 0x0
    893c:	e2544020 	subs	r4, r4, #32	; 0x20
    8940:	aa000018 	bge	89a8 <__aeabi_dmul+0x168>
    8944:	e294400c 	adds	r4, r4, #12	; 0xc
    8948:	ca00000b 	bgt	897c <__aeabi_dmul+0x13c>
    894c:	e2844014 	add	r4, r4, #20	; 0x14
    8950:	e2645020 	rsb	r5, r4, #32	; 0x20
    8954:	e1a03511 	lsl	r3, r1, r5
    8958:	e1a01431 	lsr	r1, r1, r4
    895c:	e1811510 	orr	r1, r1, r0, lsl r5
    8960:	e2002102 	and	r2, r0, #-2147483648	; 0x80000000
    8964:	e3c00102 	bic	r0, r0, #-2147483648	; 0x80000000
    8968:	e0911fa3 	adds	r1, r1, r3, lsr #31
    896c:	e0a20430 	adc	r0, r2, r0, lsr r4
    8970:	e19ee083 	orrs	lr, lr, r3, lsl #1
    8974:	01c11fa3 	biceq	r1, r1, r3, lsr #31
    8978:	e8bd8070 	pop	{r4, r5, r6, pc}
    897c:	e264400c 	rsb	r4, r4, #12	; 0xc
    8980:	e2645020 	rsb	r5, r4, #32	; 0x20
    8984:	e1a03411 	lsl	r3, r1, r4
    8988:	e1a01531 	lsr	r1, r1, r5
    898c:	e1811410 	orr	r1, r1, r0, lsl r4
    8990:	e2000102 	and	r0, r0, #-2147483648	; 0x80000000
    8994:	e0911fa3 	adds	r1, r1, r3, lsr #31
    8998:	e2a00000 	adc	r0, r0, #0	; 0x0
    899c:	e19ee083 	orrs	lr, lr, r3, lsl #1
    89a0:	01c11fa3 	biceq	r1, r1, r3, lsr #31
    89a4:	e8bd8070 	pop	{r4, r5, r6, pc}
    89a8:	e2645020 	rsb	r5, r4, #32	; 0x20
    89ac:	e18ee511 	orr	lr, lr, r1, lsl r5
    89b0:	e1a03431 	lsr	r3, r1, r4
    89b4:	e1833510 	orr	r3, r3, r0, lsl r5
    89b8:	e1a01430 	lsr	r1, r0, r4
    89bc:	e2000102 	and	r0, r0, #-2147483648	; 0x80000000
    89c0:	e1c11430 	bic	r1, r1, r0, lsr r4
    89c4:	e0811fa3 	add	r1, r1, r3, lsr #31
    89c8:	e19ee083 	orrs	lr, lr, r3, lsl #1
    89cc:	01c11fa3 	biceq	r1, r1, r3, lsr #31
    89d0:	e8bd8070 	pop	{r4, r5, r6, pc}
    89d4:	e3340000 	teq	r4, #0	; 0x0
    89d8:	1a000008 	bne	8a00 <__aeabi_dmul+0x1c0>
    89dc:	e2006102 	and	r6, r0, #-2147483648	; 0x80000000
    89e0:	e1b01081 	lsls	r1, r1, #1
    89e4:	e0a00000 	adc	r0, r0, r0
    89e8:	e3100601 	tst	r0, #1048576	; 0x100000
    89ec:	02444001 	subeq	r4, r4, #1	; 0x1
    89f0:	0afffffa 	beq	89e0 <__aeabi_dmul+0x1a0>
    89f4:	e1800006 	orr	r0, r0, r6
    89f8:	e3350000 	teq	r5, #0	; 0x0
    89fc:	11a0f00e 	movne	pc, lr
    8a00:	e2026102 	and	r6, r2, #-2147483648	; 0x80000000
    8a04:	e1b03083 	lsls	r3, r3, #1
    8a08:	e0a22002 	adc	r2, r2, r2
    8a0c:	e3120601 	tst	r2, #1048576	; 0x100000
    8a10:	02455001 	subeq	r5, r5, #1	; 0x1
    8a14:	0afffffa 	beq	8a04 <__aeabi_dmul+0x1c4>
    8a18:	e1822006 	orr	r2, r2, r6
    8a1c:	e1a0f00e 	mov	pc, lr
    8a20:	e134000c 	teq	r4, ip
    8a24:	e00c5a22 	and	r5, ip, r2, lsr #20
    8a28:	1135000c 	teqne	r5, ip
    8a2c:	0a000006 	beq	8a4c <__aeabi_dmul+0x20c>
    8a30:	e1916080 	orrs	r6, r1, r0, lsl #1
    8a34:	11936082 	orrsne	r6, r3, r2, lsl #1
    8a38:	1affffe5 	bne	89d4 <__aeabi_dmul+0x194>
    8a3c:	e0200002 	eor	r0, r0, r2
    8a40:	e2000102 	and	r0, r0, #-2147483648	; 0x80000000
    8a44:	e3a01000 	mov	r1, #0	; 0x0
    8a48:	e8bd8070 	pop	{r4, r5, r6, pc}
    8a4c:	e1916080 	orrs	r6, r1, r0, lsl #1
    8a50:	01a01003 	moveq	r1, r3
    8a54:	01a00002 	moveq	r0, r2
    8a58:	11936082 	orrsne	r6, r3, r2, lsl #1
    8a5c:	0a00000f 	beq	8aa0 <__aeabi_dmul+0x260>
    8a60:	e134000c 	teq	r4, ip
    8a64:	1a000001 	bne	8a70 <__aeabi_dmul+0x230>
    8a68:	e1916600 	orrs	r6, r1, r0, lsl #12
    8a6c:	1a00000b 	bne	8aa0 <__aeabi_dmul+0x260>
    8a70:	e135000c 	teq	r5, ip
    8a74:	1a000003 	bne	8a88 <__aeabi_dmul+0x248>
    8a78:	e1936602 	orrs	r6, r3, r2, lsl #12
    8a7c:	11a01003 	movne	r1, r3
    8a80:	11a00002 	movne	r0, r2
    8a84:	1a000005 	bne	8aa0 <__aeabi_dmul+0x260>
    8a88:	e0200002 	eor	r0, r0, r2
    8a8c:	e2000102 	and	r0, r0, #-2147483648	; 0x80000000
    8a90:	e380047f 	orr	r0, r0, #2130706432	; 0x7f000000
    8a94:	e380060f 	orr	r0, r0, #15728640	; 0xf00000
    8a98:	e3a01000 	mov	r1, #0	; 0x0
    8a9c:	e8bd8070 	pop	{r4, r5, r6, pc}
    8aa0:	e380047f 	orr	r0, r0, #2130706432	; 0x7f000000
    8aa4:	e380073e 	orr	r0, r0, #16252928	; 0xf80000
    8aa8:	e8bd8070 	pop	{r4, r5, r6, pc}

00008aac <__aeabi_ddiv>:
    8aac:	e92d4070 	push	{r4, r5, r6, lr}
    8ab0:	e3a0c0ff 	mov	ip, #255	; 0xff
    8ab4:	e38ccc07 	orr	ip, ip, #1792	; 0x700
    8ab8:	e01c4a20 	ands	r4, ip, r0, lsr #20
    8abc:	101c5a22 	andsne	r5, ip, r2, lsr #20
    8ac0:	1134000c 	teqne	r4, ip
    8ac4:	1135000c 	teqne	r5, ip
    8ac8:	0b00005c 	bleq	8c40 <__aeabi_ddiv+0x194>
    8acc:	e0444005 	sub	r4, r4, r5
    8ad0:	e020e002 	eor	lr, r0, r2
    8ad4:	e1935602 	orrs	r5, r3, r2, lsl #12
    8ad8:	e1a00600 	lsl	r0, r0, #12
    8adc:	0a00004b 	beq	8c10 <__aeabi_ddiv+0x164>
    8ae0:	e1a02602 	lsl	r2, r2, #12
    8ae4:	e3a05201 	mov	r5, #268435456	; 0x10000000
    8ae8:	e1852222 	orr	r2, r5, r2, lsr #4
    8aec:	e1822c23 	orr	r2, r2, r3, lsr #24
    8af0:	e1a03403 	lsl	r3, r3, #8
    8af4:	e1855220 	orr	r5, r5, r0, lsr #4
    8af8:	e1855c21 	orr	r5, r5, r1, lsr #24
    8afc:	e1a06401 	lsl	r6, r1, #8
    8b00:	e20e0102 	and	r0, lr, #-2147483648	; 0x80000000
    8b04:	e1550002 	cmp	r5, r2
    8b08:	01560003 	cmpeq	r6, r3
    8b0c:	e2a440fd 	adc	r4, r4, #253	; 0xfd
    8b10:	e2844c03 	add	r4, r4, #768	; 0x300
    8b14:	2a000001 	bcs	8b20 <__aeabi_ddiv+0x74>
    8b18:	e1b020a2 	lsrs	r2, r2, #1
    8b1c:	e1a03063 	rrx	r3, r3
    8b20:	e0566003 	subs	r6, r6, r3
    8b24:	e0c55002 	sbc	r5, r5, r2
    8b28:	e1b020a2 	lsrs	r2, r2, #1
    8b2c:	e1a03063 	rrx	r3, r3
    8b30:	e3a01601 	mov	r1, #1048576	; 0x100000
    8b34:	e3a0c702 	mov	ip, #524288	; 0x80000
    8b38:	e056e003 	subs	lr, r6, r3
    8b3c:	e0d5e002 	sbcs	lr, r5, r2
    8b40:	20466003 	subcs	r6, r6, r3
    8b44:	21a0500e 	movcs	r5, lr
    8b48:	2181100c 	orrcs	r1, r1, ip
    8b4c:	e1b020a2 	lsrs	r2, r2, #1
    8b50:	e1a03063 	rrx	r3, r3
    8b54:	e056e003 	subs	lr, r6, r3
    8b58:	e0d5e002 	sbcs	lr, r5, r2
    8b5c:	20466003 	subcs	r6, r6, r3
    8b60:	21a0500e 	movcs	r5, lr
    8b64:	218110ac 	orrcs	r1, r1, ip, lsr #1
    8b68:	e1b020a2 	lsrs	r2, r2, #1
    8b6c:	e1a03063 	rrx	r3, r3
    8b70:	e056e003 	subs	lr, r6, r3
    8b74:	e0d5e002 	sbcs	lr, r5, r2
    8b78:	20466003 	subcs	r6, r6, r3
    8b7c:	21a0500e 	movcs	r5, lr
    8b80:	2181112c 	orrcs	r1, r1, ip, lsr #2
    8b84:	e1b020a2 	lsrs	r2, r2, #1
    8b88:	e1a03063 	rrx	r3, r3
    8b8c:	e056e003 	subs	lr, r6, r3
    8b90:	e0d5e002 	sbcs	lr, r5, r2
    8b94:	20466003 	subcs	r6, r6, r3
    8b98:	21a0500e 	movcs	r5, lr
    8b9c:	218111ac 	orrcs	r1, r1, ip, lsr #3
    8ba0:	e195e006 	orrs	lr, r5, r6
    8ba4:	0a00000d 	beq	8be0 <__aeabi_ddiv+0x134>
    8ba8:	e1a05205 	lsl	r5, r5, #4
    8bac:	e1855e26 	orr	r5, r5, r6, lsr #28
    8bb0:	e1a06206 	lsl	r6, r6, #4
    8bb4:	e1a02182 	lsl	r2, r2, #3
    8bb8:	e1822ea3 	orr	r2, r2, r3, lsr #29
    8bbc:	e1a03183 	lsl	r3, r3, #3
    8bc0:	e1b0c22c 	lsrs	ip, ip, #4
    8bc4:	1affffdb 	bne	8b38 <__aeabi_ddiv+0x8c>
    8bc8:	e3100601 	tst	r0, #1048576	; 0x100000
    8bcc:	1a000006 	bne	8bec <__aeabi_ddiv+0x140>
    8bd0:	e1800001 	orr	r0, r0, r1
    8bd4:	e3a01000 	mov	r1, #0	; 0x0
    8bd8:	e3a0c102 	mov	ip, #-2147483648	; 0x80000000
    8bdc:	eaffffd5 	b	8b38 <__aeabi_ddiv+0x8c>
    8be0:	e3100601 	tst	r0, #1048576	; 0x100000
    8be4:	01800001 	orreq	r0, r0, r1
    8be8:	03a01000 	moveq	r1, #0	; 0x0
    8bec:	e254c0fd 	subs	ip, r4, #253	; 0xfd
    8bf0:	835c0c07 	cmphi	ip, #1792	; 0x700
    8bf4:	8affff4a 	bhi	8924 <__aeabi_dmul+0xe4>
    8bf8:	e055c002 	subs	ip, r5, r2
    8bfc:	0056c003 	subseq	ip, r6, r3
    8c00:	01b0c0a1 	lsrseq	ip, r1, #1
    8c04:	e2b11000 	adcs	r1, r1, #0	; 0x0
    8c08:	e0a00a04 	adc	r0, r0, r4, lsl #20
    8c0c:	e8bd8070 	pop	{r4, r5, r6, pc}
    8c10:	e20ee102 	and	lr, lr, #-2147483648	; 0x80000000
    8c14:	e18e0620 	orr	r0, lr, r0, lsr #12
    8c18:	e09440ac 	adds	r4, r4, ip, lsr #1
    8c1c:	c074500c 	rsbsgt	r5, r4, ip
    8c20:	c1800a04 	orrgt	r0, r0, r4, lsl #20
    8c24:	c8bd8070 	popgt	{r4, r5, r6, pc}
    8c28:	e3800601 	orr	r0, r0, #1048576	; 0x100000
    8c2c:	e3a0e000 	mov	lr, #0	; 0x0
    8c30:	e2544001 	subs	r4, r4, #1	; 0x1
    8c34:	eaffff3a 	b	8924 <__aeabi_dmul+0xe4>
    8c38:	e185e006 	orr	lr, r5, r6
    8c3c:	eaffff38 	b	8924 <__aeabi_dmul+0xe4>
    8c40:	e00c5a22 	and	r5, ip, r2, lsr #20
    8c44:	e134000c 	teq	r4, ip
    8c48:	0135000c 	teqeq	r5, ip
    8c4c:	0affff93 	beq	8aa0 <__aeabi_dmul+0x260>
    8c50:	e134000c 	teq	r4, ip
    8c54:	1a000006 	bne	8c74 <__aeabi_ddiv+0x1c8>
    8c58:	e1914600 	orrs	r4, r1, r0, lsl #12
    8c5c:	1affff8f 	bne	8aa0 <__aeabi_dmul+0x260>
    8c60:	e135000c 	teq	r5, ip
    8c64:	1affff87 	bne	8a88 <__aeabi_dmul+0x248>
    8c68:	e1a01003 	mov	r1, r3
    8c6c:	e1a00002 	mov	r0, r2
    8c70:	eaffff8a 	b	8aa0 <__aeabi_dmul+0x260>
    8c74:	e135000c 	teq	r5, ip
    8c78:	1a000004 	bne	8c90 <__aeabi_ddiv+0x1e4>
    8c7c:	e1935602 	orrs	r5, r3, r2, lsl #12
    8c80:	0affff6d 	beq	8a3c <__aeabi_dmul+0x1fc>
    8c84:	e1a01003 	mov	r1, r3
    8c88:	e1a00002 	mov	r0, r2
    8c8c:	eaffff83 	b	8aa0 <__aeabi_dmul+0x260>
    8c90:	e1916080 	orrs	r6, r1, r0, lsl #1
    8c94:	11936082 	orrsne	r6, r3, r2, lsl #1
    8c98:	1affff4d 	bne	89d4 <__aeabi_dmul+0x194>
    8c9c:	e1914080 	orrs	r4, r1, r0, lsl #1
    8ca0:	1affff78 	bne	8a88 <__aeabi_dmul+0x248>
    8ca4:	e1935082 	orrs	r5, r3, r2, lsl #1
    8ca8:	1affff63 	bne	8a3c <__aeabi_dmul+0x1fc>
    8cac:	eaffff7b 	b	8aa0 <__aeabi_dmul+0x260>

00008cb0 <__gedf2>:
    8cb0:	e3e0c000 	mvn	ip, #0	; 0x0
    8cb4:	ea000002 	b	8cc4 <__cmpdf2+0x4>

00008cb8 <__ledf2>:
    8cb8:	e3a0c001 	mov	ip, #1	; 0x1
    8cbc:	ea000000 	b	8cc4 <__cmpdf2+0x4>

00008cc0 <__cmpdf2>:
    8cc0:	e3a0c001 	mov	ip, #1	; 0x1
    8cc4:	e50dc004 	str	ip, [sp, #-4]
    8cc8:	e1a0c080 	lsl	ip, r0, #1
    8ccc:	e1f0cacc 	mvns	ip, ip, asr #21
    8cd0:	e1a0c082 	lsl	ip, r2, #1
    8cd4:	11f0cacc 	mvnsne	ip, ip, asr #21
    8cd8:	0a00000d 	beq	8d14 <__cmpdf2+0x54>
    8cdc:	e191c080 	orrs	ip, r1, r0, lsl #1
    8ce0:	0193c082 	orrseq	ip, r3, r2, lsl #1
    8ce4:	11300002 	teqne	r0, r2
    8ce8:	01310003 	teqeq	r1, r3
    8cec:	03a00000 	moveq	r0, #0	; 0x0
    8cf0:	012fff1e 	bxeq	lr
    8cf4:	e3700000 	cmn	r0, #0	; 0x0
    8cf8:	e1300002 	teq	r0, r2
    8cfc:	51500002 	cmppl	r0, r2
    8d00:	01510003 	cmpeq	r1, r3
    8d04:	21a00fc2 	asrcs	r0, r2, #31
    8d08:	31e00fc2 	mvncc	r0, r2, asr #31
    8d0c:	e3800001 	orr	r0, r0, #1	; 0x1
    8d10:	e12fff1e 	bx	lr
    8d14:	e1a0c080 	lsl	ip, r0, #1
    8d18:	e1f0cacc 	mvns	ip, ip, asr #21
    8d1c:	1a000001 	bne	8d28 <__cmpdf2+0x68>
    8d20:	e191c600 	orrs	ip, r1, r0, lsl #12
    8d24:	1a000004 	bne	8d3c <__cmpdf2+0x7c>
    8d28:	e1a0c082 	lsl	ip, r2, #1
    8d2c:	e1f0cacc 	mvns	ip, ip, asr #21
    8d30:	1affffe9 	bne	8cdc <__cmpdf2+0x1c>
    8d34:	e193c602 	orrs	ip, r3, r2, lsl #12
    8d38:	0affffe7 	beq	8cdc <__cmpdf2+0x1c>
    8d3c:	e51d0004 	ldr	r0, [sp, #-4]
    8d40:	e12fff1e 	bx	lr

00008d44 <__aeabi_cdrcmple>:
    8d44:	e1a0c000 	mov	ip, r0
    8d48:	e1a00002 	mov	r0, r2
    8d4c:	e1a0200c 	mov	r2, ip
    8d50:	e1a0c001 	mov	ip, r1
    8d54:	e1a01003 	mov	r1, r3
    8d58:	e1a0300c 	mov	r3, ip
    8d5c:	eaffffff 	b	8d60 <__aeabi_cdcmpeq>

00008d60 <__aeabi_cdcmpeq>:
    8d60:	e92d4001 	push	{r0, lr}
    8d64:	ebffffd5 	bl	8cc0 <__cmpdf2>
    8d68:	e3500000 	cmp	r0, #0	; 0x0
    8d6c:	43700000 	cmnmi	r0, #0	; 0x0
    8d70:	e8bd8001 	pop	{r0, pc}

00008d74 <__aeabi_dcmpeq>:
    8d74:	e52de008 	str	lr, [sp, #-8]!
    8d78:	ebfffff8 	bl	8d60 <__aeabi_cdcmpeq>
    8d7c:	03a00001 	moveq	r0, #1	; 0x1
    8d80:	13a00000 	movne	r0, #0	; 0x0
    8d84:	e49df008 	ldr	pc, [sp], #8

00008d88 <__aeabi_dcmplt>:
    8d88:	e52de008 	str	lr, [sp, #-8]!
    8d8c:	ebfffff3 	bl	8d60 <__aeabi_cdcmpeq>
    8d90:	33a00001 	movcc	r0, #1	; 0x1
    8d94:	23a00000 	movcs	r0, #0	; 0x0
    8d98:	e49df008 	ldr	pc, [sp], #8

00008d9c <__aeabi_dcmple>:
    8d9c:	e52de008 	str	lr, [sp, #-8]!
    8da0:	ebffffee 	bl	8d60 <__aeabi_cdcmpeq>
    8da4:	93a00001 	movls	r0, #1	; 0x1
    8da8:	83a00000 	movhi	r0, #0	; 0x0
    8dac:	e49df008 	ldr	pc, [sp], #8

00008db0 <__aeabi_dcmpge>:
    8db0:	e52de008 	str	lr, [sp, #-8]!
    8db4:	ebffffe2 	bl	8d44 <__aeabi_cdrcmple>
    8db8:	93a00001 	movls	r0, #1	; 0x1
    8dbc:	83a00000 	movhi	r0, #0	; 0x0
    8dc0:	e49df008 	ldr	pc, [sp], #8

00008dc4 <__aeabi_dcmpgt>:
    8dc4:	e52de008 	str	lr, [sp, #-8]!
    8dc8:	ebffffdd 	bl	8d44 <__aeabi_cdrcmple>
    8dcc:	33a00001 	movcc	r0, #1	; 0x1
    8dd0:	23a00000 	movcs	r0, #0	; 0x0
    8dd4:	e49df008 	ldr	pc, [sp], #8

00008dd8 <__aeabi_d2iz>:
    8dd8:	e1a02080 	lsl	r2, r0, #1
    8ddc:	e2922602 	adds	r2, r2, #2097152	; 0x200000
    8de0:	2a00000c 	bcs	8e18 <__aeabi_d2iz+0x40>
    8de4:	5a000009 	bpl	8e10 <__aeabi_d2iz+0x38>
    8de8:	e3e03e3e 	mvn	r3, #992	; 0x3e0
    8dec:	e0532ac2 	subs	r2, r3, r2, asr #21
    8df0:	9a00000a 	bls	8e20 <__aeabi_d2iz+0x48>
    8df4:	e1a03580 	lsl	r3, r0, #11
    8df8:	e3833102 	orr	r3, r3, #-2147483648	; 0x80000000
    8dfc:	e1833aa1 	orr	r3, r3, r1, lsr #21
    8e00:	e3100102 	tst	r0, #-2147483648	; 0x80000000
    8e04:	e1a00233 	lsr	r0, r3, r2
    8e08:	12600000 	rsbne	r0, r0, #0	; 0x0
    8e0c:	e12fff1e 	bx	lr
    8e10:	e3a00000 	mov	r0, #0	; 0x0
    8e14:	e12fff1e 	bx	lr
    8e18:	e1911600 	orrs	r1, r1, r0, lsl #12
    8e1c:	1a000002 	bne	8e2c <__aeabi_d2iz+0x54>
    8e20:	e2100102 	ands	r0, r0, #-2147483648	; 0x80000000
    8e24:	03e00102 	mvneq	r0, #-2147483648	; 0x80000000
    8e28:	e12fff1e 	bx	lr
    8e2c:	e3a00000 	mov	r0, #0	; 0x0
    8e30:	e12fff1e 	bx	lr
